(dp1
S'files'
p2
(dp3
S'_home_mike_Documents_python_django-mike_lib_python2_7_site-packages_Django-1_4_3-py2_7_egg_django_db_models_sql_query'
p4
(dp5
S'index'
p6
(dp7
S'html_filename'
p8
S'_home_mike_Documents_python_django-mike_lib_python2_7_site-packages_Django-1_4_3-py2_7_egg_django_db_models_sql_query.html'
p9
sS'name'
p10
S'/home/mike/Documents/python/django-mike/lib/python2.7/site-packages/Django-1.4.3-py2.7.egg/django/db/models/sql/query'
p11
sS'nums'
p12
ccopy_reg
_reconstructor
p13
(ccoverage.results
Numbers
p14
c__builtin__
object
p15
NtRp16
(dp17
S'n_files'
p18
I1
sS'n_branches'
p19
I0
sS'n_statements'
p20
I1041
sS'n_excluded'
p21
I0
sS'n_partial_branches'
p22
I0
sS'n_missing'
p23
I547
sS'n_missing_branches'
p24
I0
sbssS'hash'
p25
S'.\x07\xf2wz\xdd\x82\x9d\xae\xf6\xb4w\x0b\xa4]\x17'
p26
ssS'_home_mike_Documents_python_django-mike_lib_python2_7_site-packages_Django-1_4_3-py2_7_egg_django_db_backends_util'
p27
(dp28
g6
(dp29
S'html_filename'
p30
S'_home_mike_Documents_python_django-mike_lib_python2_7_site-packages_Django-1_4_3-py2_7_egg_django_db_backends_util.html'
p31
sS'name'
p32
S'/home/mike/Documents/python/django-mike/lib/python2.7/site-packages/Django-1.4.3-py2.7.egg/django/db/backends/util'
p33
sS'nums'
p34
g13
(g14
g15
NtRp35
(dp36
g18
I1
sg19
I0
sg20
I93
sg21
I0
sg22
I0
sg23
I61
sg24
I0
sbssg25
S'5\xb5\xea\x9f\xf7!\xffW\xce\x8d\x0b(\xe8(S\xe0'
p37
ssS'_home_mike_Documents_python_django-mike_lib_python2_7_site-packages_Django-1_4_3-py2_7_egg_django_contrib_admin_models'
p38
(dp39
g6
(dp40
g30
S'_home_mike_Documents_python_django-mike_lib_python2_7_site-packages_Django-1_4_3-py2_7_egg_django_contrib_admin_models.html'
p41
sg32
S'/home/mike/Documents/python/django-mike/lib/python2.7/site-packages/Django-1.4.3-py2.7.egg/django/contrib/admin/models'
p42
sg34
g13
(g14
g15
NtRp43
(dp44
g18
I1
sg19
I0
sg20
I50
sg21
I0
sg22
I0
sg23
I17
sg24
I0
sbssg25
S'\x01\x0byuK}\x1eM\xc7\xc6Yf\x8f=\xd3\xbf'
p45
ssS'_home_mike_Documents_python_django-mike_lib_python2_7_site-packages_Django-1_4_3-py2_7_egg_django_utils_cache'
p46
(dp47
g6
(dp48
g8
S'_home_mike_Documents_python_django-mike_lib_python2_7_site-packages_Django-1_4_3-py2_7_egg_django_utils_cache.html'
p49
sg10
S'/home/mike/Documents/python/django-mike/lib/python2.7/site-packages/Django-1.4.3-py2.7.egg/django/utils/cache'
p50
sg12
g13
(g14
g15
NtRp51
(dp52
g18
I1
sg19
I0
sg20
I124
sg21
I0
sg22
I0
sg23
I95
sg24
I0
sbssg25
S'I\xda1s\x9e{\xe2Z*\xe5\xad^\xd0~\xc7\xe5'
p53
ssS'_home_mike_Documents_python_django-mike_lib_python2_7_site-packages_tastypie_http'
p54
(dp55
S'index'
p56
(dp57
g8
S'_home_mike_Documents_python_django-mike_lib_python2_7_site-packages_tastypie_http.html'
p58
sg10
S'/home/mike/Documents/python/django-mike/lib/python2.7/site-packages/tastypie/http'
p59
sg12
g13
(g14
g15
NtRp60
(dp61
g18
I1
sg19
I0
sg20
I37
sg21
I0
sg22
I0
sg23
I3
sg24
I0
sbssS'hash'
p62
S'T\xbd\xec\x9c\xfa3\x9f\xac^\xda\xe8\x18\x96o\xf5\xcb'
p63
ssS'_home_mike_Documents_python_django-mike_lib_python2_7_site-packages_Django-1_4_3-py2_7_egg_django_core_files_utils'
p64
(dp65
g6
(dp66
g30
S'_home_mike_Documents_python_django-mike_lib_python2_7_site-packages_Django-1_4_3-py2_7_egg_django_core_files_utils.html'
p67
sg32
S'/home/mike/Documents/python/django-mike/lib/python2.7/site-packages/Django-1.4.3-py2.7.egg/django/core/files/utils'
p68
sg34
g13
(g14
g15
NtRp69
(dp70
g18
I1
sg19
I0
sg20
I19
sg21
I0
sg22
I0
sg23
I1
sg24
I0
sbssg25
S'\x91@)\xe4(\x81\xd6\xb8\x9b\x16\xc4\xeeh\x11e\xff'
p71
ssS'_home_mike_Documents_python_django-mike_lib_python2_7_site-packages_Django-1_4_3-py2_7_egg_django_contrib_auth_admin'
p72
(dp73
g56
(dp74
g8
S'_home_mike_Documents_python_django-mike_lib_python2_7_site-packages_Django-1_4_3-py2_7_egg_django_contrib_auth_admin.html'
p75
sg10
S'/home/mike/Documents/python/django-mike/lib/python2.7/site-packages/Django-1.4.3-py2.7.egg/django/contrib/auth/admin'
p76
sg12
g13
(g14
g15
NtRp77
(dp78
g18
I1
sg19
I0
sg20
I88
sg21
I0
sg22
I0
sg23
I39
sg24
I0
sbssg62
S'\xfb\x05\xf0A\x1e\x14y\xf5{\xa4\xfar\x9d\xe4/\xf9'
p79
ssS'_home_mike_Documents_python_django-mike_lib_python2_7_site-packages_Django-1_4_3-py2_7_egg_django_template_base'
p80
(dp81
g6
(dp82
g8
S'_home_mike_Documents_python_django-mike_lib_python2_7_site-packages_Django-1_4_3-py2_7_egg_django_template_base.html'
p83
sg10
S'/home/mike/Documents/python/django-mike/lib/python2.7/site-packages/Django-1.4.3-py2.7.egg/django/template/base'
p84
sg12
g13
(g14
g15
NtRp85
(dp86
g18
I1
sg19
I0
sg20
I770
sg21
I0
sg22
I0
sg23
I306
sg24
I0
sbssg25
S'\x9b\x9d\xee\xf1\xda\x9c\x8d]\xe9\x8e\x97=-,J\xce'
p87
ssS'_home_mike_Documents_python_django-mike_lib_python2_7_site-packages_Django-1_4_3-py2_7_egg_django_contrib_messages_utils'
p88
(dp89
g56
(dp90
g8
S'_home_mike_Documents_python_django-mike_lib_python2_7_site-packages_Django-1_4_3-py2_7_egg_django_contrib_messages_utils.html'
p91
sg10
S'/home/mike/Documents/python/django-mike/lib/python2.7/site-packages/Django-1.4.3-py2.7.egg/django/contrib/messages/utils'
p92
sg12
g13
(g14
g15
NtRp93
(dp94
g18
I1
sg19
I0
sg20
I6
sg21
I0
sg22
I0
sg23
I0
sg24
I0
sbssg62
S'\x8e\xc7\xac\x98\xd8\x97}YJ\xae\xe1\x07\xa0\x03\xca\xd0'
p95
ssS'_home_mike_Documents_python_django-mike_lib_python2_7_site-packages_Django-1_4_3-py2_7_egg_django_db_models_options'
p96
(dp97
g6
(dp98
g30
S'_home_mike_Documents_python_django-mike_lib_python2_7_site-packages_Django-1_4_3-py2_7_egg_django_db_models_options.html'
p99
sg32
S'/home/mike/Documents/python/django-mike/lib/python2.7/site-packages/Django-1.4.3-py2.7.egg/django/db/models/options'
p100
sg34
g13
(g14
g15
NtRp101
(dp102
g18
I1
sg19
I0
sg20
I319
sg21
I0
sg22
I0
sg23
I84
sg24
I0
sbssg25
S'\xb1\x18\xee\x00\x1a\xb9<3B\x12\xd2\xd3\x19D+\xa4'
p103
ssS'_home_mike_Documents_python_django-mike_lib_python2_7_site-packages_Django-1_4_3-py2_7_egg_django_forms_widgets'
p104
(dp105
g6
(dp106
g8
S'_home_mike_Documents_python_django-mike_lib_python2_7_site-packages_Django-1_4_3-py2_7_egg_django_forms_widgets.html'
p107
sg10
S'/home/mike/Documents/python/django-mike/lib/python2.7/site-packages/Django-1.4.3-py2.7.egg/django/forms/widgets'
p108
sg12
g13
(g14
g15
NtRp109
(dp110
g18
I1
sg19
I0
sg20
I559
sg21
I0
sg22
I0
sg23
I378
sg24
I0
sbssg25
S'\xa5(\xd5\xe2\\,\xbao2#\x13\x8e\xae\x08+\xc1'
p111
ssS'_home_mike_Documents_python_django-mike_lib_python2_7_site-packages_Django-1_4_3-py2_7_egg_django_contrib_sites_models'
p112
(dp113
g6
(dp114
g30
S'_home_mike_Documents_python_django-mike_lib_python2_7_site-packages_Django-1_4_3-py2_7_egg_django_contrib_sites_models.html'
p115
sg32
S'/home/mike/Documents/python/django-mike/lib/python2.7/site-packages/Django-1.4.3-py2.7.egg/django/contrib/sites/models'
p116
sg34
g13
(g14
g15
NtRp117
(dp118
g18
I1
sg19
I0
sg20
I55
sg21
I0
sg22
I0
sg23
I28
sg24
I0
sbssg25
S"\xea\x872\xf1'e3H\x04\xc9\x8d\x18;WZg"
p119
ssS'_home_mike_Documents_python_django-mike_lib_python2_7_site-packages_Django-1_4_3-py2_7_egg_django_core_cache_backends_db'
p120
(dp121
g6
(dp122
g30
S'_home_mike_Documents_python_django-mike_lib_python2_7_site-packages_Django-1_4_3-py2_7_egg_django_core_cache_backends_db.html'
p123
sg32
S'/home/mike/Documents/python/django-mike/lib/python2.7/site-packages/Django-1.4.3-py2.7.egg/django/core/cache/backends/db'
p124
sg34
g13
(g14
g15
NtRp125
(dp126
g18
I1
sg19
I0
sg20
I127
sg21
I0
sg22
I0
sg23
I103
sg24
I0
sbssg25
S"\xee\x8a'\xb6\x8d\x06\x8ca\t\x1c\x9dE\x8b\x854H"
p127
ssS'_home_mike_Documents_python_django-mike_lib_python2_7_site-packages_Django-1_4_3-py2_7_egg_django_utils_simplejson___init__'
p128
(dp129
g6
(dp130
g30
S'_home_mike_Documents_python_django-mike_lib_python2_7_site-packages_Django-1_4_3-py2_7_egg_django_utils_simplejson___init__.html'
p131
sg32
S'/home/mike/Documents/python/django-mike/lib/python2.7/site-packages/Django-1.4.3-py2.7.egg/django/utils/simplejson/__init__'
p132
sg34
g13
(g14
g15
NtRp133
(dp134
g18
I1
sg19
I0
sg20
I54
sg21
I0
sg22
I0
sg23
I39
sg24
I0
sbssg25
S"\xe5$x;'\x91@\x12\x06\xab)\x0c\x93\xca\xbde"
p135
ssS'_home_mike_Documents_python_django-mike_lib_python2_7_site-packages_tastypie_fields'
p136
(dp137
g56
(dp138
g8
S'_home_mike_Documents_python_django-mike_lib_python2_7_site-packages_tastypie_fields.html'
p139
sg10
S'/home/mike/Documents/python/django-mike/lib/python2.7/site-packages/tastypie/fields'
p140
sg12
g13
(g14
g15
NtRp141
(dp142
g18
I1
sg19
I0
sg20
I430
sg21
I0
sg22
I0
sg23
I306
sg24
I0
sbssg62
S'\xac\xf3*d6,f\xc9\xfd\xa6\xe7$\xeb\xd4\x0b\x16'
p143
ssS'_home_mike_Documents_python_django-mike_lib_python2_7_site-packages_Django-1_4_3-py2_7_egg_django_templatetags___init__'
p144
(dp145
g56
(dp146
g8
S'_home_mike_Documents_python_django-mike_lib_python2_7_site-packages_Django-1_4_3-py2_7_egg_django_templatetags___init__.html'
p147
sg10
S'/home/mike/Documents/python/django-mike/lib/python2.7/site-packages/Django-1.4.3-py2.7.egg/django/templatetags/__init__'
p148
sg12
g13
(g14
g15
NtRp149
(dp150
g18
I1
sg19
I0
sg20
I0
sg21
I0
sg22
I0
sg23
I0
sg24
I0
sbssg62
S'\xb0\xc8pN\xaf>\xa0\xbaz\x144\xe0A9\xb8?'
p151
ssS'_home_mike_Documents_python_django-mike_lib_python2_7_site-packages_Django-1_4_3-py2_7_egg_django_conf_locale_en_GB___init__'
p152
(dp153
g6
(dp154
g30
S'_home_mike_Documents_python_django-mike_lib_python2_7_site-packages_Django-1_4_3-py2_7_egg_django_conf_locale_en_GB___init__.html'
p155
sg32
S'/home/mike/Documents/python/django-mike/lib/python2.7/site-packages/Django-1.4.3-py2.7.egg/django/conf/locale/en_GB/__init__'
p156
sg34
g13
(g14
g15
NtRp157
(dp158
g18
I1
sg19
I0
sg20
I0
sg21
I0
sg22
I0
sg23
I0
sg24
I0
sbssg25
S'\xb0\xc8pN\xaf>\xa0\xbaz\x144\xe0A9\xb8?'
p159
ssS'_home_mike_Documents_python_django-mike_lib_python2_7_site-packages_Django-1_4_3-py2_7_egg_django_core_management_commands_loaddata'
p160
(dp161
g6
(dp162
g30
S'_home_mike_Documents_python_django-mike_lib_python2_7_site-packages_Django-1_4_3-py2_7_egg_django_core_management_commands_loaddata.html'
p163
sg32
S'/home/mike/Documents/python/django-mike/lib/python2.7/site-packages/Django-1.4.3-py2.7.egg/django/core/management/commands/loaddata'
p164
sg34
g13
(g14
g15
NtRp165
(dp166
g18
I1
sg19
I0
sg20
I163
sg21
I0
sg22
I0
sg23
I75
sg24
I0
sbssg25
S'9\xd4;\xb1\xf7\xaa\xfc/\xe2\x07=\xee\x11a/\x8d'
p167
ssS'_home_mike_Documents_python_django-mike_lib_python2_7_site-packages_Django-1_4_3-py2_7_egg_django_middleware_cache'
p168
(dp169
g6
(dp170
g30
S'_home_mike_Documents_python_django-mike_lib_python2_7_site-packages_Django-1_4_3-py2_7_egg_django_middleware_cache.html'
p171
sg32
S'/home/mike/Documents/python/django-mike/lib/python2.7/site-packages/Django-1.4.3-py2.7.egg/django/middleware/cache'
p172
sg34
g13
(g14
g15
NtRp173
(dp174
g18
I1
sg19
I0
sg20
I91
sg21
I0
sg22
I0
sg23
I78
sg24
I0
sbssg25
S'j\xd2\xba\xdeY|T\xd2\xe2\x10\x1c\x7f\xe4m\x0c\x02'
p175
ssS'_home_mike_Documents_python_django-mike_lib_python2_7_site-packages_Django-1_4_3-py2_7_egg_django_db___init__'
p176
(dp177
g6
(dp178
g8
S'_home_mike_Documents_python_django-mike_lib_python2_7_site-packages_Django-1_4_3-py2_7_egg_django_db___init__.html'
p179
sg10
S'/home/mike/Documents/python/django-mike/lib/python2.7/site-packages/Django-1.4.3-py2.7.egg/django/db/__init__'
p180
sg12
g13
(g14
g15
NtRp181
(dp182
g18
I1
sg19
I0
sg20
I32
sg21
I0
sg22
I0
sg23
I10
sg24
I0
sbssg25
S'\xcd\x92\xb4\x99\xd0\x0e\xe9#]\x96\xb9\xbb7\xc4PG'
p183
ssS'_home_mike_Documents_python_django-mike_lib_python2_7_site-packages_Django-1_4_3-py2_7_egg_django_core_management_commands___init__'
p184
(dp185
g6
(dp186
g30
S'_home_mike_Documents_python_django-mike_lib_python2_7_site-packages_Django-1_4_3-py2_7_egg_django_core_management_commands___init__.html'
p187
sg32
S'/home/mike/Documents/python/django-mike/lib/python2.7/site-packages/Django-1.4.3-py2.7.egg/django/core/management/commands/__init__'
p188
sg34
g13
(g14
g15
NtRp189
(dp190
g18
I1
sg19
I0
sg20
I0
sg21
I0
sg22
I0
sg23
I0
sg24
I0
sbssg25
S'\xb0\xc8pN\xaf>\xa0\xbaz\x144\xe0A9\xb8?'
p191
ssS'_home_mike_Documents_python_django-mike_lib_python2_7_site-packages_Django-1_4_3-py2_7_egg_django_contrib_contenttypes_models'
p192
(dp193
g6
(dp194
g30
S'_home_mike_Documents_python_django-mike_lib_python2_7_site-packages_Django-1_4_3-py2_7_egg_django_contrib_contenttypes_models.html'
p195
sg32
S'/home/mike/Documents/python/django-mike/lib/python2.7/site-packages/Django-1.4.3-py2.7.egg/django/contrib/contenttypes/models'
p196
sg34
g13
(g14
g15
NtRp197
(dp198
g18
I1
sg19
I0
sg20
I91
sg21
I0
sg22
I0
sg23
I45
sg24
I0
sbssg25
S'\xa2X\xbdIa\x05\x16m\xea%\xd8\x1e\x81\xa2\xc2\xa1'
p199
ssS'_home_mike_Documents_python_django-mike_lib_python2_7_site-packages_Django-1_4_3-py2_7_egg_django_core_cache___init__'
p200
(dp201
g6
(dp202
g30
S'_home_mike_Documents_python_django-mike_lib_python2_7_site-packages_Django-1_4_3-py2_7_egg_django_core_cache___init__.html'
p203
sg32
S'/home/mike/Documents/python/django-mike/lib/python2.7/site-packages/Django-1.4.3-py2.7.egg/django/core/cache/__init__'
p204
sg34
g13
(g14
g15
NtRp205
(dp206
g18
I1
sg19
I0
sg20
I83
sg21
I0
sg22
I0
sg23
I29
sg24
I0
sbssg25
S'\x03J\xd1\xea9s5\xa2\x1c\xd2\x9d|J\xbeu\xb9'
p207
ssS'_home_mike_Documents_python_django-mike_lib_python2_7_site-packages_Django-1_4_3-py2_7_egg_django_contrib_admin_templatetags_admin_static'
p208
(dp209
g6
(dp210
g30
S'_home_mike_Documents_python_django-mike_lib_python2_7_site-packages_Django-1_4_3-py2_7_egg_django_contrib_admin_templatetags_admin_static.html'
p211
sg32
S'/home/mike/Documents/python/django-mike/lib/python2.7/site-packages/Django-1.4.3-py2.7.egg/django/contrib/admin/templatetags/admin_static'
p212
sg34
g13
(g14
g15
NtRp213
(dp214
g18
I1
sg19
I0
sg20
I7
sg21
I0
sg22
I0
sg23
I1
sg24
I0
sbssg25
S'\x99{\xd7\xbc\xa3W\x085\xed$9\xd94r\xea\x15'
p215
ssS'_home_mike_Documents_python_django-mike_lib_python2_7_site-packages_Django-1_4_3-py2_7_egg_django_db_utils'
p216
(dp217
g6
(dp218
g30
S'_home_mike_Documents_python_django-mike_lib_python2_7_site-packages_Django-1_4_3-py2_7_egg_django_db_utils.html'
p219
sg32
S'/home/mike/Documents/python/django-mike/lib/python2.7/site-packages/Django-1.4.3-py2.7.egg/django/db/utils'
p220
sg34
g13
(g14
g15
NtRp221
(dp222
g18
I1
sg19
I0
sg20
I120
sg21
I0
sg22
I0
sg23
I57
sg24
I0
sbssg25
S'\x96\xfb\xcet\x1ao\xe5\x8c\xb6^\x1e\xd7\xc4\x1d\x9c,'
p223
ssS'_home_mike_Documents_python_django-mike_lib_python2_7_site-packages_Django-1_4_3-py2_7_egg_django_core_files_move'
p224
(dp225
g6
(dp226
g30
S'_home_mike_Documents_python_django-mike_lib_python2_7_site-packages_Django-1_4_3-py2_7_egg_django_core_files_move.html'
p227
sg32
S'/home/mike/Documents/python/django-mike/lib/python2.7/site-packages/Django-1.4.3-py2.7.egg/django/core/files/move'
p228
sg34
g13
(g14
g15
NtRp229
(dp230
g18
I1
sg19
I0
sg20
I47
sg21
I0
sg22
I0
sg23
I40
sg24
I0
sbssg25
S'y\\\xb7\x8a\xe3\xc5u\x9bK\xa2(CK\x07Q\x90'
p231
ssS'_home_mike_Documents_python_django-mike_lib_python2_7_site-packages_Django-1_4_3-py2_7_egg_django_utils_baseconv'
p232
(dp233
g6
(dp234
g30
S'_home_mike_Documents_python_django-mike_lib_python2_7_site-packages_Django-1_4_3-py2_7_egg_django_utils_baseconv.html'
p235
sg32
S'/home/mike/Documents/python/django-mike/lib/python2.7/site-packages/Django-1.4.3-py2.7.egg/django/utils/baseconv'
p236
sg34
g13
(g14
g15
NtRp237
(dp238
g18
I1
sg19
I0
sg20
I48
sg21
I0
sg22
I0
sg23
I25
sg24
I0
sbssg25
S'1\xe8\xf6U\x98C\xe4\x99\x17*\xe3\xe1\x86\xeej\x0b'
p239
ssS'_home_mike_Documents_python_django-mike_lib_python2_7_site-packages_tastypie_authentication'
p240
(dp241
g56
(dp242
g8
S'_home_mike_Documents_python_django-mike_lib_python2_7_site-packages_tastypie_authentication.html'
p243
sg10
S'/home/mike/Documents/python/django-mike/lib/python2.7/site-packages/tastypie/authentication'
p244
sg12
g13
(g14
g15
NtRp245
(dp246
g18
I1
sg19
I0
sg20
I247
sg21
I0
sg22
I0
sg23
I184
sg24
I0
sbssg62
S'=snNt%\xf2;\x94\xec9\x9fk\x96\x8d\xbb'
p247
ssS'_home_mike_Documents_python_django-mike_lib_python2_7_site-packages_Django-1_4_3-py2_7_egg_django_db_models_sql_subqueries'
p248
(dp249
g6
(dp250
g30
S'_home_mike_Documents_python_django-mike_lib_python2_7_site-packages_Django-1_4_3-py2_7_egg_django_db_models_sql_subqueries.html'
p251
sg32
S'/home/mike/Documents/python/django-mike/lib/python2.7/site-packages/Django-1.4.3-py2.7.egg/django/db/models/sql/subqueries'
p252
sg34
g13
(g14
g15
NtRp253
(dp254
g18
I1
sg19
I0
sg20
I113
sg21
I0
sg22
I0
sg23
I69
sg24
I0
sbssg25
S'\xe9\x80\x84\x1e\x96\\\x82u\xb8\x0c\xc6\xa3\xd2OQB'
p255
ssS'_home_mike_Documents_python_django-mike_lib_python2_7_site-packages_Django-1_4_3-py2_7_egg_django_forms_util'
p256
(dp257
g6
(dp258
g30
S'_home_mike_Documents_python_django-mike_lib_python2_7_site-packages_Django-1_4_3-py2_7_egg_django_forms_util.html'
p259
sg32
S'/home/mike/Documents/python/django-mike/lib/python2.7/site-packages/Django-1.4.3-py2.7.egg/django/forms/util'
p260
sg34
g13
(g14
g15
NtRp261
(dp262
g18
I1
sg19
I0
sg20
I41
sg21
I0
sg22
I0
sg23
I22
sg24
I0
sbssg25
S'\xd5\xdd\xf1\x0c1\x8a\rz"\xf1\xc5\'q\xb3EH'
p263
ssS'_home_mike_Documents_python_django-mike_lib_python2_7_site-packages_Django-1_4_3-py2_7_egg_django_utils_functional'
p264
(dp265
g6
(dp266
g8
S'_home_mike_Documents_python_django-mike_lib_python2_7_site-packages_Django-1_4_3-py2_7_egg_django_utils_functional.html'
p267
sg10
S'/home/mike/Documents/python/django-mike/lib/python2.7/site-packages/Django-1.4.3-py2.7.egg/django/utils/functional'
p268
sg12
g13
(g14
g15
NtRp269
(dp270
g18
I1
sg19
I0
sg20
I168
sg21
I0
sg22
I0
sg23
I43
sg24
I0
sbssg25
S'\xb9NL \xcc\xf9`\xda\x91]\xe7|\x0b\xe5\xd9&'
p271
ssS'_home_mike_Documents_python_django-mike_lib_python2_7_site-packages_Django-1_4_3-py2_7_egg_django_contrib_staticfiles_finders'
p272
(dp273
g6
(dp274
g30
S'_home_mike_Documents_python_django-mike_lib_python2_7_site-packages_Django-1_4_3-py2_7_egg_django_contrib_staticfiles_finders.html'
p275
sg32
S'/home/mike/Documents/python/django-mike/lib/python2.7/site-packages/Django-1.4.3-py2.7.egg/django/contrib/staticfiles/finders'
p276
sg34
g13
(g14
g15
NtRp277
(dp278
g18
I1
sg19
I0
sg20
I158
sg21
I0
sg22
I0
sg23
I121
sg24
I0
sbssg25
S'\xa8\nv\xabZ\xf0a.\xaf\x0b\xa78\xba\n\xa2\x9b'
p279
ssS'_home_mike_Documents_python_django-mike_lib_python2_7_site-packages_Django-1_4_3-py2_7_egg_django_contrib_sites___init__'
p280
(dp281
g6
(dp282
g30
S'_home_mike_Documents_python_django-mike_lib_python2_7_site-packages_Django-1_4_3-py2_7_egg_django_contrib_sites___init__.html'
p283
sg32
S'/home/mike/Documents/python/django-mike/lib/python2.7/site-packages/Django-1.4.3-py2.7.egg/django/contrib/sites/__init__'
p284
sg34
g13
(g14
g15
NtRp285
(dp286
g18
I1
sg19
I0
sg20
I0
sg21
I0
sg22
I0
sg23
I0
sg24
I0
sbssg25
S'\xb0\xc8pN\xaf>\xa0\xbaz\x144\xe0A9\xb8?'
p287
ssS'_home_mike_Documents_python_django-mike_lib_python2_7_site-packages_Django-1_4_3-py2_7_egg_django_db_backends_sqlite3_client'
p288
(dp289
g6
(dp290
g30
S'_home_mike_Documents_python_django-mike_lib_python2_7_site-packages_Django-1_4_3-py2_7_egg_django_db_backends_sqlite3_client.html'
p291
sg32
S'/home/mike/Documents/python/django-mike/lib/python2.7/site-packages/Django-1.4.3-py2.7.egg/django/db/backends/sqlite3/client'
p292
sg34
g13
(g14
g15
NtRp293
(dp294
g18
I1
sg19
I0
sg20
I10
sg21
I0
sg22
I0
sg23
I4
sg24
I0
sbssg25
S'\xc1M\xc7\x1f ySpt\x02\xcb\x82\xbeT\x1c\xaa'
p295
ssS'_home_mike_Documents_python_django-mike_lib_python2_7_site-packages_defusedxml_common'
p296
(dp297
g56
(dp298
g8
S'_home_mike_Documents_python_django-mike_lib_python2_7_site-packages_defusedxml_common.html'
p299
sg10
S'/home/mike/Documents/python/django-mike/lib/python2.7/site-packages/defusedxml/common'
p300
sg12
g13
(g14
g15
NtRp301
(dp302
g18
I1
sg19
I0
sg20
I94
sg21
I0
sg22
I0
sg23
I74
sg24
I0
sbssg62
S'\x98\x8fU\xfb\x1a\xd8l\nH\xae\x10\xd3\x14)\xec&'
p303
ssS'_home_mike_Documents_python_django-mike_lib_python2_7_site-packages_Django-1_4_3-py2_7_egg_django_conf___init__'
p304
(dp305
g6
(dp306
g30
S'_home_mike_Documents_python_django-mike_lib_python2_7_site-packages_Django-1_4_3-py2_7_egg_django_conf___init__.html'
p307
sg32
S'/home/mike/Documents/python/django-mike/lib/python2.7/site-packages/Django-1.4.3-py2.7.egg/django/conf/__init__'
p308
sg34
g13
(g14
g15
NtRp309
(dp310
g18
I1
sg19
I0
sg20
I85
sg21
I0
sg22
I0
sg23
I28
sg24
I0
sbssg25
S'\xde\x01%5C\xac\xc9\xac\xb3\x10T\x7f`\xf7,r'
p311
ssS'_home_mike_Documents_python_django-mike_lib_python2_7_site-packages_Django-1_4_3-py2_7_egg_django_conf_locale_en_GB_formats'
p312
(dp313
g6
(dp314
g30
S'_home_mike_Documents_python_django-mike_lib_python2_7_site-packages_Django-1_4_3-py2_7_egg_django_conf_locale_en_GB_formats.html'
p315
sg32
S'/home/mike/Documents/python/django-mike/lib/python2.7/site-packages/Django-1.4.3-py2.7.egg/django/conf/locale/en_GB/formats'
p316
sg34
g13
(g14
g15
NtRp317
(dp318
g18
I1
sg19
I0
sg20
I14
sg21
I0
sg22
I0
sg23
I0
sg24
I0
sbssg25
S'\x1c\xd6%\x8c\x90]]_\x86[\xd14\xb8\\9\xf7'
p319
ssS'_home_mike_Documents_python_django-mike_lib_python2_7_site-packages_Django-1_4_3-py2_7_egg_django_contrib_admin_widgets'
p320
(dp321
g6
(dp322
g30
S'_home_mike_Documents_python_django-mike_lib_python2_7_site-packages_Django-1_4_3-py2_7_egg_django_contrib_admin_widgets.html'
p323
sg32
S'/home/mike/Documents/python/django-mike/lib/python2.7/site-packages/Django-1.4.3-py2.7.egg/django/contrib/admin/widgets'
p324
sg34
g13
(g14
g15
NtRp325
(dp326
g18
I1
sg19
I0
sg20
I211
sg21
I0
sg22
I0
sg23
I148
sg24
I0
sbssg25
S'\xd8:v\xfea\x15\xe1\x01B\x8b\x16\x81\xff\xc7Q\x13'
p327
ssS'_home_mike_Documents_python_django-mike_lib_python2_7_site-packages_Django-1_4_3-py2_7_egg_django_contrib_admin_helpers'
p328
(dp329
g6
(dp330
g30
S'_home_mike_Documents_python_django-mike_lib_python2_7_site-packages_Django-1_4_3-py2_7_egg_django_contrib_admin_helpers.html'
p331
sg32
S'/home/mike/Documents/python/django-mike/lib/python2.7/site-packages/Django-1.4.3-py2.7.egg/django/contrib/admin/helpers'
p332
sg34
g13
(g14
g15
NtRp333
(dp334
g18
I1
sg19
I0
sg20
I245
sg21
I0
sg22
I0
sg23
I182
sg24
I0
sbssg25
S'2\x07\xb3\xfcP!\xc7\x02\xd7\xd9"\xf4\xab\xfd\xbfX'
p335
ssS'_home_mike_Documents_python_django-mike_lib_python2_7_site-packages_Django-1_4_3-py2_7_egg_django_db_models_sql_aggregates'
p336
(dp337
g6
(dp338
g8
S'_home_mike_Documents_python_django-mike_lib_python2_7_site-packages_Django-1_4_3-py2_7_egg_django_db_models_sql_aggregates.html'
p339
sg10
S'/home/mike/Documents/python/django-mike/lib/python2.7/site-packages/Django-1.4.3-py2.7.egg/django/db/models/sql/aggregates'
p340
sg12
g13
(g14
g15
NtRp341
(dp342
g18
I1
sg19
I0
sg20
I57
sg21
I0
sg22
I0
sg23
I11
sg24
I0
sbssg25
S'}K.\x8c\xdd\xa3\xcc\xbe\xde\xcfd\x1b\xb0\xb7\x98\x87'
p343
ssS'_home_mike_Documents_python_django-mike_lib_python2_7_site-packages_Django-1_4_3-py2_7_egg_django_core_mail___init__'
p344
(dp345
g6
(dp346
g30
S'_home_mike_Documents_python_django-mike_lib_python2_7_site-packages_Django-1_4_3-py2_7_egg_django_core_mail___init__.html'
p347
sg32
S'/home/mike/Documents/python/django-mike/lib/python2.7/site-packages/Django-1.4.3-py2.7.egg/django/core/mail/__init__'
p348
sg34
g13
(g14
g15
NtRp349
(dp350
g18
I1
sg19
I0
sg20
I38
sg21
I0
sg22
I0
sg23
I28
sg24
I0
sbssg25
S'-\x89\xe2MN\xf5\x8f\xb6\x13\x12\x0c\xa7V\xa2#\xa2'
p351
ssS'_home_mike_Documents_python_django-mike_lib_python2_7_site-packages_Django-1_4_3-py2_7_egg_django_views_static'
p352
(dp353
g6
(dp354
g30
S'_home_mike_Documents_python_django-mike_lib_python2_7_site-packages_Django-1_4_3-py2_7_egg_django_views_static.html'
p355
sg32
S'/home/mike/Documents/python/django-mike/lib/python2.7/site-packages/Django-1.4.3-py2.7.egg/django/views/static'
p356
sg34
g13
(g14
g15
NtRp357
(dp358
g18
I1
sg19
I0
sg20
I74
sg21
I0
sg22
I0
sg23
I58
sg24
I0
sbssg25
S'\xc03WiA\xf43pq\xf8\xbc\x92?\xc6~\xa2'
p359
ssS'_home_mike_Documents_python_django-mike_lib_python2_7_site-packages_Django-1_4_3-py2_7_egg_django_db_models_aggregates'
p360
(dp361
g6
(dp362
g30
S'_home_mike_Documents_python_django-mike_lib_python2_7_site-packages_Django-1_4_3-py2_7_egg_django_db_models_aggregates.html'
p363
sg32
S'/home/mike/Documents/python/django-mike/lib/python2.7/site-packages/Django-1.4.3-py2.7.egg/django/db/models/aggregates'
p364
sg34
g13
(g14
g15
NtRp365
(dp366
g18
I1
sg19
I0
sg20
I25
sg21
I0
sg22
I0
sg23
I6
sg24
I0
sbssg25
S'TO\x1e/\xbc\x9c\x17\xc0\xd4\xad\xd9\xae\xc4\\\xa4I'
p367
ssS'_home_mike_Documents_python_django-mike_lib_python2_7_site-packages_Django-1_4_3-py2_7_egg_django_contrib_admin_templatetags___init__'
p368
(dp369
g6
(dp370
g30
S'_home_mike_Documents_python_django-mike_lib_python2_7_site-packages_Django-1_4_3-py2_7_egg_django_contrib_admin_templatetags___init__.html'
p371
sg32
S'/home/mike/Documents/python/django-mike/lib/python2.7/site-packages/Django-1.4.3-py2.7.egg/django/contrib/admin/templatetags/__init__'
p372
sg34
g13
(g14
g15
NtRp373
(dp374
g18
I1
sg19
I0
sg20
I0
sg21
I0
sg22
I0
sg23
I0
sg24
I0
sbssg25
S'\xb0\xc8pN\xaf>\xa0\xbaz\x144\xe0A9\xb8?'
p375
ssS'_home_mike_Documents_python_django-mike_lib_python2_7_site-packages_Django-1_4_3-py2_7_egg_django_utils_timesince'
p376
(dp377
g6
(dp378
g30
S'_home_mike_Documents_python_django-mike_lib_python2_7_site-packages_Django-1_4_3-py2_7_egg_django_utils_timesince.html'
p379
sg32
S'/home/mike/Documents/python/django-mike/lib/python2.7/site-packages/Django-1.4.3-py2.7.egg/django/utils/timesince'
p380
sg34
g13
(g14
g15
NtRp381
(dp382
g18
I1
sg19
I0
sg20
I28
sg21
I0
sg22
I0
sg23
I23
sg24
I0
sbssg25
S'\xfd1-5\xb5\xd0-~\xd5u\xc2\xb4/\xe6"0'
p383
ssS'_home_mike_Documents_python_django-mike_lib_python2_7_site-packages_Django-1_4_3-py2_7_egg_django_db_models_query'
p384
(dp385
g6
(dp386
g8
S'_home_mike_Documents_python_django-mike_lib_python2_7_site-packages_Django-1_4_3-py2_7_egg_django_db_models_query.html'
p387
sg10
S'/home/mike/Documents/python/django-mike/lib/python2.7/site-packages/Django-1.4.3-py2.7.egg/django/db/models/query'
p388
sg12
g13
(g14
g15
NtRp389
(dp390
g18
I1
sg19
I0
sg20
I925
sg21
I0
sg22
I0
sg23
I609
sg24
I0
sbssg25
S'\x08\n\x8b"\x1c\x17~\x82\x1ezb\x930\xc7"5'
p391
ssS'_home_mike_Documents_python_django-mike_lib_python2_7_site-packages_tastypie_utils_urls'
p392
(dp393
g56
(dp394
g8
S'_home_mike_Documents_python_django-mike_lib_python2_7_site-packages_tastypie_utils_urls.html'
p395
sg10
S'/home/mike/Documents/python/django-mike/lib/python2.7/site-packages/tastypie/utils/urls'
p396
sg12
g13
(g14
g15
NtRp397
(dp398
g18
I1
sg19
I0
sg20
I5
sg21
I0
sg22
I0
sg23
I1
sg24
I0
sbssg62
S'\x88oWQw2t\x14\t\xe1\xddnS+\x14\x1b'
p399
ssS'_home_mike_Documents_python_django-mike_lib_python2_7_site-packages_Django-1_4_3-py2_7_egg_django_contrib_admin_filters'
p400
(dp401
g6
(dp402
g30
S'_home_mike_Documents_python_django-mike_lib_python2_7_site-packages_Django-1_4_3-py2_7_egg_django_contrib_admin_filters.html'
p403
sg32
S'/home/mike/Documents/python/django-mike/lib/python2.7/site-packages/Django-1.4.3-py2.7.egg/django/contrib/admin/filters'
p404
sg34
g13
(g14
g15
NtRp405
(dp406
g18
I1
sg19
I0
sg20
I187
sg21
I0
sg22
I0
sg23
I126
sg24
I0
sbssg25
S'\xaa\xce@\xb7\xca\xc7\xa3\x11F\x02\xb9\xff\xef\xe5\xf61'
p407
ssS'_home_mike_Documents_python_django-mike_lib_python2_7_site-packages_Django-1_4_3-py2_7_egg_django_core_files_temp'
p408
(dp409
g6
(dp410
g30
S'_home_mike_Documents_python_django-mike_lib_python2_7_site-packages_Django-1_4_3-py2_7_egg_django_core_files_temp.html'
p411
sg32
S'/home/mike/Documents/python/django-mike/lib/python2.7/site-packages/Django-1.4.3-py2.7.egg/django/core/files/temp'
p412
sg34
g13
(g14
g15
NtRp413
(dp414
g18
I1
sg19
I0
sg20
I28
sg21
I0
sg22
I0
sg23
I21
sg24
I0
sbssg25
S'\x14%Z\x18\x8e\x18K\xa3Y\x1f\xa7\x988\xdc)X'
p415
ssS'django_test___init__'
p416
(dp417
g6
(dp418
g30
S'django_test___init__.html'
p419
sg32
S'django_test/__init__'
p420
sg34
g13
(g14
g15
NtRp421
(dp422
g18
I1
sg19
I0
sg20
I0
sg21
I0
sg22
I0
sg23
I0
sg24
I0
sbssg25
S'\xb0\xc8pN\xaf>\xa0\xbaz\x144\xe0A9\xb8?'
p423
ssS'_home_mike_Documents_python_django-mike_lib_python2_7_site-packages_Django-1_4_3-py2_7_egg_django_db_models_manager'
p424
(dp425
g6
(dp426
g8
S'_home_mike_Documents_python_django-mike_lib_python2_7_site-packages_Django-1_4_3-py2_7_egg_django_db_models_manager.html'
p427
sg10
S'/home/mike/Documents/python/django-mike/lib/python2.7/site-packages/Django-1.4.3-py2.7.egg/django/db/models/manager'
p428
sg12
g13
(g14
g15
NtRp429
(dp430
g18
I1
sg19
I0
sg20
I139
sg21
I0
sg22
I0
sg23
I42
sg24
I0
sbssg25
S'\xe8\x93/\xe6n`\xab\xa8\xdc\xed\xbe\xbb}&\x97\x1d'
p431
ssS'_home_mike_Documents_python_django-mike_lib_python2_7_site-packages_Django-1_4_3-py2_7_egg_django_contrib_auth_hashers'
p432
(dp433
g6
(dp434
g30
S'_home_mike_Documents_python_django-mike_lib_python2_7_site-packages_Django-1_4_3-py2_7_egg_django_contrib_auth_hashers.html'
p435
sg32
S'/home/mike/Documents/python/django-mike/lib/python2.7/site-packages/Django-1.4.3-py2.7.egg/django/contrib/auth/hashers'
p436
sg34
g13
(g14
g15
NtRp437
(dp438
g18
I1
sg19
I0
sg20
I200
sg21
I0
sg22
I0
sg23
I134
sg24
I0
sbssg25
S':\x81\xf2h\xfaUD\xd8\xa9\xd3K\xbaz\xceY\xf6'
p439
ssS'_home_mike_Documents_python_django-mike_lib_python2_7_site-packages_Django-1_4_3-py2_7_egg_django_utils_dates'
p440
(dp441
g6
(dp442
g30
S'_home_mike_Documents_python_django-mike_lib_python2_7_site-packages_Django-1_4_3-py2_7_egg_django_utils_dates.html'
p443
sg32
S'/home/mike/Documents/python/django-mike/lib/python2.7/site-packages/Django-1.4.3-py2.7.egg/django/utils/dates'
p444
sg34
g13
(g14
g15
NtRp445
(dp446
g18
I1
sg19
I0
sg20
I9
sg21
I0
sg22
I0
sg23
I0
sg24
I0
sbssg25
S'\xed\xe1n\x81\x12\xc1\xc6\x8b\xd8\x98O4:mTA'
p447
ssS'_home_mike_Documents_python_django-mike_lib_python2_7_site-packages_Django-1_4_3-py2_7_egg_django_utils_termcolors'
p448
(dp449
g6
(dp450
g30
S'_home_mike_Documents_python_django-mike_lib_python2_7_site-packages_Django-1_4_3-py2_7_egg_django_utils_termcolors.html'
p451
sg32
S'/home/mike/Documents/python/django-mike/lib/python2.7/site-packages/Django-1.4.3-py2.7.egg/django/utils/termcolors'
p452
sg34
g13
(g14
g15
NtRp453
(dp454
g18
I1
sg19
I0
sg20
I56
sg21
I0
sg22
I0
sg23
I40
sg24
I0
sbssg25
S')\xd7\xec/\xe0)\xeb\xed\xa3\\\xca\xca\xc8aI\xa8'
p455
ssS'_home_mike_Documents_python_django-mike_lib_python2_7_site-packages_Django-1_4_3-py2_7_egg_django_views_decorators_cache'
p456
(dp457
g6
(dp458
g30
S'_home_mike_Documents_python_django-mike_lib_python2_7_site-packages_Django-1_4_3-py2_7_egg_django_views_decorators_cache.html'
p459
sg32
S'/home/mike/Documents/python/django-mike/lib/python2.7/site-packages/Django-1.4.3-py2.7.egg/django/views/decorators/cache'
p460
sg34
g13
(g14
g15
NtRp461
(dp462
g18
I1
sg19
I0
sg20
I40
sg21
I0
sg22
I0
sg23
I31
sg24
I0
sbssg25
S'\x02B\x80\x13a\x16\x1dq\xc1oy\xd0\x0e\x1c\x7fW'
p463
ssS'article_views'
p464
(dp465
g56
(dp466
g8
S'article_views.html'
p467
sg10
S'article/views'
p468
sg12
g13
(g14
g15
NtRp469
(dp470
g18
I1
sg19
I0
sg20
I68
sg21
I0
sg22
I0
sg23
I43
sg24
I0
sbssg62
S'\xa3\xadEO\x13C;5F,\xb7\xb73u\x8bh'
p471
ssS'_home_mike_Documents_python_django-mike_lib_python2_7_site-packages_Django-1_4_3-py2_7_egg_django_core_management_sql'
p472
(dp473
g6
(dp474
g30
S'_home_mike_Documents_python_django-mike_lib_python2_7_site-packages_Django-1_4_3-py2_7_egg_django_core_management_sql.html'
p475
sg32
S'/home/mike/Documents/python/django-mike/lib/python2.7/site-packages/Django-1.4.3-py2.7.egg/django/core/management/sql'
p476
sg34
g13
(g14
g15
NtRp477
(dp478
g18
I1
sg19
I0
sg20
I107
sg21
I0
sg22
I0
sg23
I72
sg24
I0
sbssg25
S'\xc4\t\x14\xec\xf9+\xbb\xd9\xc1\xa54A\xa24\n\x89'
p479
ssS'_home_mike_Documents_python_django-mike_lib_python2_7_site-packages_dateutil_relativedelta'
p480
(dp481
g56
(dp482
g8
S'_home_mike_Documents_python_django-mike_lib_python2_7_site-packages_dateutil_relativedelta.html'
p483
sg10
S'/home/mike/Documents/python/django-mike/lib/python2.7/site-packages/dateutil/relativedelta'
p484
sg12
g13
(g14
g15
NtRp485
(dp486
g18
I1
sg19
I0
sg20
I223
sg21
I0
sg22
I0
sg23
I192
sg24
I0
sbssg62
S'\xac\x89\x99\x85J,\xc3\xd5\x9d\x9d6\xf1\xedJ~\xf9'
p487
ssS'_home_mike_Documents_python_django-mike_lib_python2_7_site-packages_Django-1_4_3-py2_7_egg_django_utils_datetime_safe'
p488
(dp489
g6
(dp490
g30
S'_home_mike_Documents_python_django-mike_lib_python2_7_site-packages_Django-1_4_3-py2_7_egg_django_utils_datetime_safe.html'
p491
sg32
S'/home/mike/Documents/python/django-mike/lib/python2.7/site-packages/Django-1.4.3-py2.7.egg/django/utils/datetime_safe'
p492
sg34
g13
(g14
g15
NtRp493
(dp494
g18
I1
sg19
I0
sg20
I56
sg21
I0
sg22
I0
sg23
I42
sg24
I0
sbssg25
S'\xcf\x16v\x83I\x1c\x906G\x91=\xec\x94\xfdf\xbe'
p495
ssS'_home_mike_Documents_python_django-mike_lib_python2_7_site-packages_Django-1_4_3-py2_7_egg_django_contrib_messages_storage_fallback'
p496
(dp497
g56
(dp498
g8
S'_home_mike_Documents_python_django-mike_lib_python2_7_site-packages_Django-1_4_3-py2_7_egg_django_contrib_messages_storage_fallback.html'
p499
sg10
S'/home/mike/Documents/python/django-mike/lib/python2.7/site-packages/Django-1.4.3-py2.7.egg/django/contrib/messages/storage/fallback'
p500
sg12
g13
(g14
g15
NtRp501
(dp502
g18
I1
sg19
I0
sg20
I29
sg21
I0
sg22
I0
sg23
I18
sg24
I0
sbssg62
S"\x86\xf6\x90W\x81\x1c\xf3'\x83\xb7\xa0A{\xf4x\x07"
p503
ssS'_home_mike_Documents_python_django-mike_lib_python2_7_site-packages_Django-1_4_3-py2_7_egg_django_db_models_fields_proxy'
p504
(dp505
g6
(dp506
g30
S'_home_mike_Documents_python_django-mike_lib_python2_7_site-packages_Django-1_4_3-py2_7_egg_django_db_models_fields_proxy.html'
p507
sg32
S'/home/mike/Documents/python/django-mike/lib/python2.7/site-packages/Django-1.4.3-py2.7.egg/django/db/models/fields/proxy'
p508
sg34
g13
(g14
g15
NtRp509
(dp510
g18
I1
sg19
I0
sg20
I6
sg21
I0
sg22
I0
sg23
I3
sg24
I0
sbssg25
S'\xaf:\xd7\xa5\xadun\x1b\xb7\x141\x81\x80j\x94\xe6'
p511
ssS'_home_mike_Documents_python_django-mike_lib_python2_7_site-packages_Django-1_4_3-py2_7_egg_django_contrib_sessions_models'
p512
(dp513
g6
(dp514
g30
S'_home_mike_Documents_python_django-mike_lib_python2_7_site-packages_Django-1_4_3-py2_7_egg_django_contrib_sessions_models.html'
p515
sg32
S'/home/mike/Documents/python/django-mike/lib/python2.7/site-packages/Django-1.4.3-py2.7.egg/django/contrib/sessions/models'
p516
sg34
g13
(g14
g15
NtRp517
(dp518
g18
I1
sg19
I0
sg20
I23
sg21
I0
sg22
I0
sg23
I7
sg24
I0
sbssg25
S'< \xef\x96\xa0\x8c\xd8\xe9~\n\xbb7\xe7U\xf3['
p519
ssS'_home_mike_Documents_python_django-mike_lib_python2_7_site-packages_Django-1_4_3-py2_7_egg_django_db_backends_sqlite3_creation'
p520
(dp521
g6
(dp522
g30
S'_home_mike_Documents_python_django-mike_lib_python2_7_site-packages_Django-1_4_3-py2_7_egg_django_db_backends_sqlite3_creation.html'
p523
sg32
S'/home/mike/Documents/python/django-mike/lib/python2.7/site-packages/Django-1.4.3-py2.7.egg/django/db/backends/sqlite3/creation'
p524
sg34
g13
(g14
g15
NtRp525
(dp526
g18
I1
sg19
I0
sg20
I43
sg21
I0
sg22
I0
sg23
I17
sg24
I0
sbssg25
S'3n\xf4\x02\xf5\xc0\x87MKjM\xf2\xd3\xbd\xaf\x7f'
p527
ssS'_home_mike_Documents_python_django-mike_lib_python2_7_site-packages_Django-1_4_3-py2_7_egg_django_contrib_auth_management___init__'
p528
(dp529
g6
(dp530
g30
S'_home_mike_Documents_python_django-mike_lib_python2_7_site-packages_Django-1_4_3-py2_7_egg_django_contrib_auth_management___init__.html'
p531
sg32
S'/home/mike/Documents/python/django-mike/lib/python2.7/site-packages/Django-1.4.3-py2.7.egg/django/contrib/auth/management/__init__'
p532
sg34
g13
(g14
g15
NtRp533
(dp534
g18
I1
sg19
I0
sg20
I64
sg21
I0
sg22
I0
sg23
I30
sg24
I0
sbssg25
S'\xe0\xdb"?K/\x90\x8cms\xbfq\xf5\x04=\xc4'
p535
ssS'_home_mike_Documents_python_django-mike_lib_python2_7_site-packages_Django-1_4_3-py2_7_egg_django_shortcuts___init__'
p536
(dp537
g6
(dp538
g8
S'_home_mike_Documents_python_django-mike_lib_python2_7_site-packages_Django-1_4_3-py2_7_egg_django_shortcuts___init__.html'
p539
sg10
S'/home/mike/Documents/python/django-mike/lib/python2.7/site-packages/Django-1.4.3-py2.7.egg/django/shortcuts/__init__'
p540
sg12
g13
(g14
g15
NtRp541
(dp542
g18
I1
sg19
I0
sg20
I52
sg21
I0
sg22
I0
sg23
I38
sg24
I0
sbssg25
S'\xc6@\x1e\x9e\x8fR\xc3X\xd3\x16\x1d\xb4\x05\xef\xca\xfd'
p543
ssS'_home_mike_Documents_python_django-mike_lib_python2_7_site-packages_Django-1_4_3-py2_7_egg_django_template_context'
p544
(dp545
g6
(dp546
g8
S'_home_mike_Documents_python_django-mike_lib_python2_7_site-packages_Django-1_4_3-py2_7_egg_django_template_context.html'
p547
sg10
S'/home/mike/Documents/python/django-mike/lib/python2.7/site-packages/Django-1.4.3-py2.7.egg/django/template/context'
p548
sg12
g13
(g14
g15
NtRp549
(dp550
g18
I1
sg19
I0
sg20
I111
sg21
I0
sg22
I0
sg23
I44
sg24
I0
sbssg25
S'\xb9\x99\xfe\xfd\xbc\x05\x07ZY\xcc\xfdI9\xbe\xb7\xdc'
p551
ssS'_home_mike_Documents_python_django-mike_lib_python2_7_site-packages_Django-1_4_3-py2_7_egg_django_db_backends_signals'
p552
(dp553
g6
(dp554
g30
S'_home_mike_Documents_python_django-mike_lib_python2_7_site-packages_Django-1_4_3-py2_7_egg_django_db_backends_signals.html'
p555
sg32
S'/home/mike/Documents/python/django-mike/lib/python2.7/site-packages/Django-1.4.3-py2.7.egg/django/db/backends/signals'
p556
sg34
g13
(g14
g15
NtRp557
(dp558
g18
I1
sg19
I0
sg20
I2
sg21
I0
sg22
I0
sg23
I0
sg24
I0
sbssg25
S'\xac\xe8\xc0\xe9\x8a\xd9d\xcc\x03\xc1\x89\xd4\xde\xa8x<'
p559
ssS'_home_mike_Documents_python_django-mike_lib_python2_7_site-packages_Django-1_4_3-py2_7_egg_django_core_files_uploadedfile'
p560
(dp561
g6
(dp562
g30
S'_home_mike_Documents_python_django-mike_lib_python2_7_site-packages_Django-1_4_3-py2_7_egg_django_core_files_uploadedfile.html'
p563
sg32
S'/home/mike/Documents/python/django-mike/lib/python2.7/site-packages/Django-1.4.3-py2.7.egg/django/core/files/uploadedfile'
p564
sg34
g13
(g14
g15
NtRp565
(dp566
g18
I1
sg19
I0
sg20
I63
sg21
I0
sg22
I0
sg23
I34
sg24
I0
sbssg25
S'yv\x0b\xbdw\xa4\xc6\xdf\xafC\xedY\xae\xd2\xc2\xda'
p567
ssS'_home_mike_Documents_python_django-mike_lib_python2_7_site-packages_tastypie_compat'
p568
(dp569
g56
(dp570
g8
S'_home_mike_Documents_python_django-mike_lib_python2_7_site-packages_tastypie_compat.html'
p571
sg10
S'/home/mike/Documents/python/django-mike/lib/python2.7/site-packages/tastypie/compat'
p572
sg12
g13
(g14
g15
NtRp573
(dp574
g18
I1
sg19
I0
sg20
I14
sg21
I0
sg22
I0
sg23
I6
sg24
I0
sbssg62
S'\xa3\xa0;y\x82(Q\xe7\xd8{\xf8\x83\xacB%\xe0'
p575
ssS'_home_mike_Documents_python_django-mike_lib_python2_7_site-packages_Django-1_4_3-py2_7_egg_django_contrib_sessions_backends___init__'
p576
(dp577
g6
(dp578
g30
S'_home_mike_Documents_python_django-mike_lib_python2_7_site-packages_Django-1_4_3-py2_7_egg_django_contrib_sessions_backends___init__.html'
p579
sg32
S'/home/mike/Documents/python/django-mike/lib/python2.7/site-packages/Django-1.4.3-py2.7.egg/django/contrib/sessions/backends/__init__'
p580
sg34
g13
(g14
g15
NtRp581
(dp582
g18
I1
sg19
I0
sg20
I0
sg21
I0
sg22
I0
sg23
I0
sg24
I0
sbssg25
S'\xb0\xc8pN\xaf>\xa0\xbaz\x144\xe0A9\xb8?'
p583
ssS'_home_mike_Documents_python_django-mike_lib_python2_7_site-packages_Django-1_4_3-py2_7_egg_django_test_client'
p584
(dp585
g6
(dp586
g8
S'_home_mike_Documents_python_django-mike_lib_python2_7_site-packages_Django-1_4_3-py2_7_egg_django_test_client.html'
p587
sg10
S'/home/mike/Documents/python/django-mike/lib/python2.7/site-packages/Django-1.4.3-py2.7.egg/django/test/client'
p588
sg12
g13
(g14
g15
NtRp589
(dp590
g18
I1
sg19
I0
sg20
I260
sg21
I0
sg22
I0
sg23
I136
sg24
I0
sbssg25
S'\xac\x83y\xfb\xd2\xd4/\xd9\xc7\x8b\xbe\xfd\xbf\x17\xbb\xeb'
p591
ssS'article_admin'
p592
(dp593
g56
(dp594
g8
S'article_admin.html'
p595
sg10
S'article/admin'
p596
sg12
g13
(g14
g15
NtRp597
(dp598
g18
I1
sg19
I0
sg20
I3
sg21
I0
sg22
I0
sg23
I0
sg24
I0
sbssg62
S'\xb4\xcf!\x0b\x9cO\xc9]\x9c\x0f1!\x1b\x93\xe33'
p599
ssS'_home_mike_Documents_python_django-mike_lib_python2_7_site-packages_Django-1_4_3-py2_7_egg_django_utils_timezone'
p600
(dp601
g6
(dp602
g8
S'_home_mike_Documents_python_django-mike_lib_python2_7_site-packages_Django-1_4_3-py2_7_egg_django_utils_timezone.html'
p603
sg10
S'/home/mike/Documents/python/django-mike/lib/python2.7/site-packages/Django-1.4.3-py2.7.egg/django/utils/timezone'
p604
sg12
g13
(g14
g15
NtRp605
(dp606
g18
I1
sg19
I0
sg20
I110
sg21
I0
sg22
I0
sg23
I61
sg24
I0
sbssg25
S'wm\xea(N\xd6\x00\xaaM\x1b\xf8\xe3\x0b\x04P\x95'
p607
ssS'_home_mike_Documents_python_django-mike_lib_python2_7_site-packages_lxml___init__'
p608
(dp609
g56
(dp610
g8
S'_home_mike_Documents_python_django-mike_lib_python2_7_site-packages_lxml___init__.html'
p611
sg10
S'/home/mike/Documents/python/django-mike/lib/python2.7/site-packages/lxml/__init__'
p612
sg12
g13
(g14
g15
NtRp613
(dp614
g18
I1
sg19
I0
sg20
I10
sg21
I0
sg22
I0
sg23
I9
sg24
I0
sbssg62
S'\xb06\xc4\xf1\x1dT}[\xf3\xf0\xa7\xf8*ir\xf7'
p615
ssS'_home_mike_Documents_python_django-mike_lib_python2_7_site-packages_Django-1_4_3-py2_7_egg_django_db_backends___init__'
p616
(dp617
g6
(dp618
g8
S'_home_mike_Documents_python_django-mike_lib_python2_7_site-packages_Django-1_4_3-py2_7_egg_django_db_backends___init__.html'
p619
sg10
S'/home/mike/Documents/python/django-mike/lib/python2.7/site-packages/Django-1.4.3-py2.7.egg/django/db/backends/__init__'
p620
sg12
g13
(g14
g15
NtRp621
(dp622
g18
I1
sg19
I0
sg20
I428
sg21
I0
sg22
I0
sg23
I121
sg24
I0
sbssg25
S'_\x97\xb8\xd8\xb4&\t\xc9-m#D!9C\xa7'
p623
ssS'_home_mike_Documents_python_django-mike_lib_python2_7_site-packages_Django-1_4_3-py2_7_egg_django___init__'
p624
(dp625
g6
(dp626
g30
S'_home_mike_Documents_python_django-mike_lib_python2_7_site-packages_Django-1_4_3-py2_7_egg_django___init__.html'
p627
sg32
S'/home/mike/Documents/python/django-mike/lib/python2.7/site-packages/Django-1.4.3-py2.7.egg/django/__init__'
p628
sg34
g13
(g14
g15
NtRp629
(dp630
g18
I1
sg19
I0
sg20
I18
sg21
I0
sg22
I0
sg23
I6
sg24
I0
sbssg25
S'\xf0\x13?\xd9\xba.\xecb\x02\xbc\xc7\x99)\xd7:\xea'
p631
ssS'_home_mike_Documents_python_django-mike_lib_python2_7_site-packages_Django-1_4_3-py2_7_egg_django_utils___init__'
p632
(dp633
g6
(dp634
g30
S'_home_mike_Documents_python_django-mike_lib_python2_7_site-packages_Django-1_4_3-py2_7_egg_django_utils___init__.html'
p635
sg32
S'/home/mike/Documents/python/django-mike/lib/python2.7/site-packages/Django-1.4.3-py2.7.egg/django/utils/__init__'
p636
sg34
g13
(g14
g15
NtRp637
(dp638
g18
I1
sg19
I0
sg20
I0
sg21
I0
sg22
I0
sg23
I0
sg24
I0
sbssg25
S'\xb0\xc8pN\xaf>\xa0\xbaz\x144\xe0A9\xb8?'
p639
ssS'_home_mike_Documents_python_django-mike_lib_python2_7_site-packages_tastypie_cache'
p640
(dp641
g56
(dp642
g8
S'_home_mike_Documents_python_django-mike_lib_python2_7_site-packages_tastypie_cache.html'
p643
sg10
S'/home/mike/Documents/python/django-mike/lib/python2.7/site-packages/tastypie/cache'
p644
sg12
g13
(g14
g15
NtRp645
(dp646
g18
I1
sg19
I0
sg20
I34
sg21
I0
sg22
I0
sg23
I18
sg24
I0
sbssg62
S'M\x0be!\xe9sn&\xca\xd4\xe6\xa1\xbd\xc5\xc0\xdd'
p647
ssS'_home_mike_Documents_python_django-mike_lib_python2_7_site-packages_tastypie_serializers'
p648
(dp649
g56
(dp650
g8
S'_home_mike_Documents_python_django-mike_lib_python2_7_site-packages_tastypie_serializers.html'
p651
sg10
S'/home/mike/Documents/python/django-mike/lib/python2.7/site-packages/tastypie/serializers'
p652
sg12
g13
(g14
g15
NtRp653
(dp654
g18
I1
sg19
I0
sg20
I273
sg21
I0
sg22
I0
sg23
I212
sg24
I0
sbssg62
S'\x97\xbf\x12c\xfb\xbb92\x0b\x8bt\xdcc\xfb\xba|'
p655
ssS'_home_mike_Documents_python_django-mike_lib_python2_7_site-packages_tastypie_utils_formatting'
p656
(dp657
g56
(dp658
g8
S'_home_mike_Documents_python_django-mike_lib_python2_7_site-packages_tastypie_utils_formatting.html'
p659
sg10
S'/home/mike/Documents/python/django-mike/lib/python2.7/site-packages/tastypie/utils/formatting'
p660
sg12
g13
(g14
g15
NtRp661
(dp662
g18
I1
sg19
I0
sg20
I18
sg21
I0
sg22
I0
sg23
I8
sg24
I0
sbssg62
S'_\x11s\xdd\x8e*G\xb5\x13<\xfcg\x1f\xe1\xdaO'
p663
ssS'_home_mike_Documents_python_django-mike_lib_python2_7_site-packages_Django-1_4_3-py2_7_egg_django_utils_html_parser'
p664
(dp665
g6
(dp666
g30
S'_home_mike_Documents_python_django-mike_lib_python2_7_site-packages_Django-1_4_3-py2_7_egg_django_utils_html_parser.html'
p667
sg32
S'/home/mike/Documents/python/django-mike/lib/python2.7/site-packages/Django-1.4.3-py2.7.egg/django/utils/html_parser'
p668
sg34
g13
(g14
g15
NtRp669
(dp670
g18
I1
sg19
I0
sg20
I79
sg21
I0
sg22
I0
sg23
I72
sg24
I0
sbssg25
S' U\x1b\xe8\xf2\xbb\xefK\xdb\x14 \x01\xdeQ\xc2\xd5'
p671
ssS'_home_mike_Documents_python_django-mike_lib_python2_7_site-packages_Django-1_4_3-py2_7_egg_django_contrib_admin_sites'
p672
(dp673
g6
(dp674
g8
S'_home_mike_Documents_python_django-mike_lib_python2_7_site-packages_Django-1_4_3-py2_7_egg_django_contrib_admin_sites.html'
p675
sg10
S'/home/mike/Documents/python/django-mike/lib/python2.7/site-packages/Django-1.4.3-py2.7.egg/django/contrib/admin/sites'
p676
sg12
g13
(g14
g15
NtRp677
(dp678
g18
I1
sg19
I0
sg20
I203
sg21
I0
sg22
I0
sg23
I118
sg24
I0
sbssg25
S'c)\xeca\xb2"$\xf1l\x88\xe5\xfbv\xcb\xa8m'
p679
ssS'_home_mike_Documents_python_django-mike_lib_python2_7_site-packages_Django-1_4_3-py2_7_egg_django_core_servers___init__'
p680
(dp681
g6
(dp682
g30
S'_home_mike_Documents_python_django-mike_lib_python2_7_site-packages_Django-1_4_3-py2_7_egg_django_core_servers___init__.html'
p683
sg32
S'/home/mike/Documents/python/django-mike/lib/python2.7/site-packages/Django-1.4.3-py2.7.egg/django/core/servers/__init__'
p684
sg34
g13
(g14
g15
NtRp685
(dp686
g18
I1
sg19
I0
sg20
I0
sg21
I0
sg22
I0
sg23
I0
sg24
I0
sbssg25
S'\xb0\xc8pN\xaf>\xa0\xbaz\x144\xe0A9\xb8?'
p687
ssS'_home_mike_Documents_python_django-mike_lib_python2_7_site-packages_defusedxml_lxml'
p688
(dp689
g56
(dp690
g8
S'_home_mike_Documents_python_django-mike_lib_python2_7_site-packages_defusedxml_lxml.html'
p691
sg10
S'/home/mike/Documents/python/django-mike/lib/python2.7/site-packages/defusedxml/lxml'
p692
sg12
g13
(g14
g15
NtRp693
(dp694
g18
I1
sg19
I0
sg20
I87
sg21
I0
sg22
I0
sg23
I55
sg24
I0
sbssg62
S'\r;@|e\xe2t\x1e\xd1\\\x8f\xa1r?\x11,'
p695
ssS'article___init__'
p696
(dp697
g6
(dp698
g30
S'article___init__.html'
p699
sg32
S'article/__init__'
p700
sg34
g13
(g14
g15
NtRp701
(dp702
g18
I1
sg19
I0
sg20
I0
sg21
I0
sg22
I0
sg23
I0
sg24
I0
sbssg25
S'\xb0\xc8pN\xaf>\xa0\xbaz\x144\xe0A9\xb8?'
p703
ssS'_home_mike_Documents_python_django-mike_lib_python2_7_site-packages_Django-1_4_3-py2_7_egg_django_views_decorators_csrf'
p704
(dp705
g6
(dp706
g8
S'_home_mike_Documents_python_django-mike_lib_python2_7_site-packages_Django-1_4_3-py2_7_egg_django_views_decorators_csrf.html'
p707
sg10
S'/home/mike/Documents/python/django-mike/lib/python2.7/site-packages/Django-1.4.3-py2.7.egg/django/views/decorators/csrf'
p708
sg12
g13
(g14
g15
NtRp709
(dp710
g18
I1
sg19
I0
sg20
I34
sg21
I0
sg22
I0
sg23
I10
sg24
I0
sbssg25
S'\x18C\x9f\x13\xb90\xde\x8a\xb3M\xdd\x8b$q>\xb8'
p711
ssS'_home_mike_Documents_python_django-mike_lib_python2_7_site-packages_Django-1_4_3-py2_7_egg_django_db_models_sql_constants'
p712
(dp713
g6
(dp714
g30
S'_home_mike_Documents_python_django-mike_lib_python2_7_site-packages_Django-1_4_3-py2_7_egg_django_db_models_sql_constants.html'
p715
sg32
S'/home/mike/Documents/python/django-mike/lib/python2.7/site-packages/Django-1.4.3-py2.7.egg/django/db/models/sql/constants'
p716
sg34
g13
(g14
g15
NtRp717
(dp718
g18
I1
sg19
I0
sg20
I15
sg21
I0
sg22
I0
sg23
I0
sg24
I0
sbssg25
S'_\xa8i4X\x9e\xb0\tKL\xa8\xac8"\x1a\x13'
p719
ssS'_home_mike_Documents_python_django-mike_lib_python2_7_site-packages_Django-1_4_3-py2_7_egg_django_contrib_auth_middleware'
p720
(dp721
g56
(dp722
g8
S'_home_mike_Documents_python_django-mike_lib_python2_7_site-packages_Django-1_4_3-py2_7_egg_django_contrib_auth_middleware.html'
p723
sg10
S'/home/mike/Documents/python/django-mike/lib/python2.7/site-packages/Django-1.4.3-py2.7.egg/django/contrib/auth/middleware'
p724
sg12
g13
(g14
g15
NtRp725
(dp726
g18
I1
sg19
I0
sg20
I35
sg21
I0
sg22
I0
sg23
I23
sg24
I0
sbssg62
S'\xf4\xbf\x16\x1b\x9a\x1a\x88\xc9\x8b[\xf6=R\nD\xe8'
p727
ssS'_home_mike_Documents_python_django-mike_lib_python2_7_site-packages_Django-1_4_3-py2_7_egg_django_core_files_base'
p728
(dp729
g6
(dp730
g30
S'_home_mike_Documents_python_django-mike_lib_python2_7_site-packages_Django-1_4_3-py2_7_egg_django_core_files_base.html'
p731
sg32
S'/home/mike/Documents/python/django-mike/lib/python2.7/site-packages/Django-1.4.3-py2.7.egg/django/core/files/base'
p732
sg34
g13
(g14
g15
NtRp733
(dp734
g18
I1
sg19
I0
sg20
I90
sg21
I0
sg22
I0
sg23
I53
sg24
I0
sbssg25
S'\x0c\xb9\xde;\x07gQ\xf7\x8b\xcd\x06t\xd6\x94\xcb\x16'
p735
ssS'_home_mike_Documents_python_django-mike_lib_python2_7_site-packages_Django-1_4_3-py2_7_egg_django_core_signing'
p736
(dp737
g6
(dp738
g30
S'_home_mike_Documents_python_django-mike_lib_python2_7_site-packages_Django-1_4_3-py2_7_egg_django_core_signing.html'
p739
sg32
S'/home/mike/Documents/python/django-mike/lib/python2.7/site-packages/Django-1.4.3-py2.7.egg/django/core/signing'
p740
sg34
g13
(g14
g15
NtRp741
(dp742
g18
I1
sg19
I0
sg20
I92
sg21
I0
sg22
I0
sg23
I61
sg24
I0
sbssg25
S'\xb7\x1bS\x13Q\xb4\xf5k\x90\xf7hKv\xf0\xb8\x87'
p743
ssS'_home_mike_Documents_python_django-mike_lib_python2_7_site-packages_Django-1_4_3-py2_7_egg_django_db_backends_sqlite3___init__'
p744
(dp745
g6
(dp746
g30
S'_home_mike_Documents_python_django-mike_lib_python2_7_site-packages_Django-1_4_3-py2_7_egg_django_db_backends_sqlite3___init__.html'
p747
sg32
S'/home/mike/Documents/python/django-mike/lib/python2.7/site-packages/Django-1.4.3-py2.7.egg/django/db/backends/sqlite3/__init__'
p748
sg34
g13
(g14
g15
NtRp749
(dp750
g18
I1
sg19
I0
sg20
I0
sg21
I0
sg22
I0
sg23
I0
sg24
I0
sbssg25
S'\xb0\xc8pN\xaf>\xa0\xbaz\x144\xe0A9\xb8?'
p751
ssS'_home_mike_Documents_python_django-mike_lib_python2_7_site-packages_Django-1_4_3-py2_7_egg_django_utils_numberformat'
p752
(dp753
g6
(dp754
g8
S'_home_mike_Documents_python_django-mike_lib_python2_7_site-packages_Django-1_4_3-py2_7_egg_django_utils_numberformat.html'
p755
sg10
S'/home/mike/Documents/python/django-mike/lib/python2.7/site-packages/Django-1.4.3-py2.7.egg/django/utils/numberformat'
p756
sg12
g13
(g14
g15
NtRp757
(dp758
g18
I1
sg19
I0
sg20
I31
sg21
I0
sg22
I0
sg23
I23
sg24
I0
sbssg25
S'{\x87~\xdao\x939\x99\xa1\x8e\xd0\x94\x04\xc7\xc4\xe2'
p759
ssS'_home_mike_Documents_python_django-mike_lib_python2_7_site-packages_Django-1_4_3-py2_7_egg_django_contrib_staticfiles_models'
p760
(dp761
g6
(dp762
g30
S'_home_mike_Documents_python_django-mike_lib_python2_7_site-packages_Django-1_4_3-py2_7_egg_django_contrib_staticfiles_models.html'
p763
sg32
S'/home/mike/Documents/python/django-mike/lib/python2.7/site-packages/Django-1.4.3-py2.7.egg/django/contrib/staticfiles/models'
p764
sg34
g13
(g14
g15
NtRp765
(dp766
g18
I1
sg19
I0
sg20
I0
sg21
I0
sg22
I0
sg23
I0
sg24
I0
sbssg25
S'\xb0\xc8pN\xaf>\xa0\xbaz\x144\xe0A9\xb8?'
p767
ssS'_home_mike_Documents_python_django-mike_lib_python2_7_site-packages_Django-1_4_3-py2_7_egg_django_utils_encoding'
p768
(dp769
g6
(dp770
g8
S'_home_mike_Documents_python_django-mike_lib_python2_7_site-packages_Django-1_4_3-py2_7_egg_django_utils_encoding.html'
p771
sg10
S'/home/mike/Documents/python/django-mike/lib/python2.7/site-packages/Django-1.4.3-py2.7.egg/django/utils/encoding'
p772
sg12
g13
(g14
g15
NtRp773
(dp774
g18
I1
sg19
I0
sg20
I82
sg21
I0
sg22
I0
sg23
I31
sg24
I0
sbssg25
S'\xad\xdaw\x92ED`*\xad\xa2HK\x02\x1dCx'
p775
ssS'_home_mike_Documents_python_django-mike_lib_python2_7_site-packages_Django-1_4_3-py2_7_egg_django_core_management___init__'
p776
(dp777
g6
(dp778
g30
S'_home_mike_Documents_python_django-mike_lib_python2_7_site-packages_Django-1_4_3-py2_7_egg_django_core_management___init__.html'
p779
sg32
S'/home/mike/Documents/python/django-mike/lib/python2.7/site-packages/Django-1.4.3-py2.7.egg/django/core/management/__init__'
p780
sg34
g13
(g14
g15
NtRp781
(dp782
g18
I1
sg19
I0
sg20
I203
sg21
I0
sg22
I0
sg23
I99
sg24
I0
sbssg25
S'\xfd^@/6\x1f\xf6\x8d\xfa\x97<\xe3#i\xb3*'
p783
ssS'_home_mike_Documents_python_django-mike_lib_python2_7_site-packages_Django-1_4_3-py2_7_egg_django_template_debug'
p784
(dp785
g56
(dp786
g8
S'_home_mike_Documents_python_django-mike_lib_python2_7_site-packages_Django-1_4_3-py2_7_egg_django_template_debug.html'
p787
sg10
S'/home/mike/Documents/python/django-mike/lib/python2.7/site-packages/Django-1.4.3-py2.7.egg/django/template/debug'
p788
sg12
g13
(g14
g15
NtRp789
(dp790
g18
I1
sg19
I0
sg20
I78
sg21
I0
sg22
I0
sg23
I19
sg24
I0
sbssg62
S'\x84\x15\x94>0\x8d\xa6\x97h\xaa\xda%\xf6~\xb0\xc6'
p791
ssS'_home_mike_Documents_python_django-mike_lib_python2_7_site-packages_tastypie_authorization'
p792
(dp793
g56
(dp794
g8
S'_home_mike_Documents_python_django-mike_lib_python2_7_site-packages_tastypie_authorization.html'
p795
sg10
S'/home/mike/Documents/python/django-mike/lib/python2.7/site-packages/tastypie/authorization'
p796
sg12
g13
(g14
g15
NtRp797
(dp798
g18
I1
sg19
I0
sg20
I105
sg21
I0
sg22
I0
sg23
I74
sg24
I0
sbssg62
S'Y\xfdk2=\x02\x1f\x92AB\xe9\xe3\xba\xa1\xca\x13'
p799
ssS'_home_mike_Documents_python_django-mike_lib_python2_7_site-packages_six'
p800
(dp801
g56
(dp802
g8
S'_home_mike_Documents_python_django-mike_lib_python2_7_site-packages_six.html'
p803
sg10
S'/home/mike/Documents/python/django-mike/lib/python2.7/site-packages/six'
p804
sg12
g13
(g14
g15
NtRp805
(dp806
g18
I1
sg19
I0
sg20
I230
sg21
I0
sg22
I0
sg23
I127
sg24
I0
sbssg62
S'\x96\x8b\x1e=\xc5p>O\xa7\xce\xe3"\xca\xfb\x88\x1c'
p807
ssS'_home_mike_Documents_python_django-mike_lib_python2_7_site-packages_Django-1_4_3-py2_7_egg_django_dispatch_dispatcher'
p808
(dp809
g6
(dp810
g8
S'_home_mike_Documents_python_django-mike_lib_python2_7_site-packages_Django-1_4_3-py2_7_egg_django_dispatch_dispatcher.html'
p811
sg10
S'/home/mike/Documents/python/django-mike/lib/python2.7/site-packages/Django-1.4.3-py2.7.egg/django/dispatch/dispatcher'
p812
sg12
g13
(g14
g15
NtRp813
(dp814
g18
I1
sg19
I0
sg20
I101
sg21
I0
sg22
I0
sg23
I27
sg24
I0
sbssg25
S'/\x98\xb0y\xaa\xdb\xfe\x04\xbf\xdb\x82\xce\xf8\xa0\xa4\xb2'
p815
ssS'django_test_forms'
p816
(dp817
g56
(dp818
g8
S'django_test_forms.html'
p819
sg10
S'django_test/forms'
p820
sg12
g13
(g14
g15
NtRp821
(dp822
g18
I1
sg19
I0
sg20
I14
sg21
I0
sg22
I0
sg23
I5
sg24
I0
sbssg62
S':\x98\x15/\x9a\xf0\xcc\x83Y\xecX\x14L\x93\xb7W'
p823
ssS'_home_mike_Documents_python_django-mike_lib_python2_7_site-packages_tastypie_paginator'
p824
(dp825
g56
(dp826
g8
S'_home_mike_Documents_python_django-mike_lib_python2_7_site-packages_tastypie_paginator.html'
p827
sg10
S'/home/mike/Documents/python/django-mike/lib/python2.7/site-packages/tastypie/paginator'
p828
sg12
g13
(g14
g15
NtRp829
(dp830
g18
I1
sg19
I0
sg20
I87
sg21
I0
sg22
I0
sg23
I74
sg24
I0
sbssg62
S'\x96\x0bq\x8c\xe2\xfc\xd7%\x7fN\xb6\x8b\xb3z\xe4K'
p831
ssS'_home_mike_Documents_python_django-mike_lib_python2_7_site-packages_Django-1_4_3-py2_7_egg_django_template_loaders___init__'
p832
(dp833
g6
(dp834
g30
S'_home_mike_Documents_python_django-mike_lib_python2_7_site-packages_Django-1_4_3-py2_7_egg_django_template_loaders___init__.html'
p835
sg32
S'/home/mike/Documents/python/django-mike/lib/python2.7/site-packages/Django-1.4.3-py2.7.egg/django/template/loaders/__init__'
p836
sg34
g13
(g14
g15
NtRp837
(dp838
g18
I1
sg19
I0
sg20
I0
sg21
I0
sg22
I0
sg23
I0
sg24
I0
sbssg25
S'\xb0\xc8pN\xaf>\xa0\xbaz\x144\xe0A9\xb8?'
p839
ssS'_home_mike_Documents_python_django-mike_lib_python2_7_site-packages_Django-1_4_3-py2_7_egg_django_test_signals'
p840
(dp841
g6
(dp842
g30
S'_home_mike_Documents_python_django-mike_lib_python2_7_site-packages_Django-1_4_3-py2_7_egg_django_test_signals.html'
p843
sg32
S'/home/mike/Documents/python/django-mike/lib/python2.7/site-packages/Django-1.4.3-py2.7.egg/django/test/signals'
p844
sg34
g13
(g14
g15
NtRp845
(dp846
g18
I1
sg19
I0
sg20
I17
sg21
I0
sg22
I0
sg23
I10
sg24
I0
sbssg25
S'6\xfb\xb9q?8\xcb\x90\x15G}\x9b\x9b\x8d\x82\x9d'
p847
ssS'_home_mike_Documents_python_django-mike_lib_python2_7_site-packages_Django-1_4_3-py2_7_egg_django_contrib___init__'
p848
(dp849
g6
(dp850
g30
S'_home_mike_Documents_python_django-mike_lib_python2_7_site-packages_Django-1_4_3-py2_7_egg_django_contrib___init__.html'
p851
sg32
S'/home/mike/Documents/python/django-mike/lib/python2.7/site-packages/Django-1.4.3-py2.7.egg/django/contrib/__init__'
p852
sg34
g13
(g14
g15
NtRp853
(dp854
g18
I1
sg19
I0
sg20
I0
sg21
I0
sg22
I0
sg23
I0
sg24
I0
sbssg25
S'\xb0\xc8pN\xaf>\xa0\xbaz\x144\xe0A9\xb8?'
p855
ssS'_home_mike_Documents_python_django-mike_lib_python2_7_site-packages_Django-1_4_3-py2_7_egg_django_contrib_contenttypes___init__'
p856
(dp857
g6
(dp858
g30
S'_home_mike_Documents_python_django-mike_lib_python2_7_site-packages_Django-1_4_3-py2_7_egg_django_contrib_contenttypes___init__.html'
p859
sg32
S'/home/mike/Documents/python/django-mike/lib/python2.7/site-packages/Django-1.4.3-py2.7.egg/django/contrib/contenttypes/__init__'
p860
sg34
g13
(g14
g15
NtRp861
(dp862
g18
I1
sg19
I0
sg20
I0
sg21
I0
sg22
I0
sg23
I0
sg24
I0
sbssg25
S'\xb0\xc8pN\xaf>\xa0\xbaz\x144\xe0A9\xb8?'
p863
ssS'_home_mike_Documents_python_django-mike_lib_python2_7_site-packages_Django-1_4_3-py2_7_egg_django_contrib_auth_forms'
p864
(dp865
g6
(dp866
g30
S'_home_mike_Documents_python_django-mike_lib_python2_7_site-packages_Django-1_4_3-py2_7_egg_django_contrib_auth_forms.html'
p867
sg32
S'/home/mike/Documents/python/django-mike/lib/python2.7/site-packages/Django-1.4.3-py2.7.egg/django/contrib/auth/forms'
p868
sg34
g13
(g14
g15
NtRp869
(dp870
g18
I1
sg19
I0
sg20
I175
sg21
I0
sg22
I0
sg23
I103
sg24
I0
sbssg25
S'\x91\xff\xe6\xf0u\x92\x88\\a\xd6fR\xb5\xf8,E'
p871
ssS'_home_mike_Documents_python_django-mike_lib_python2_7_site-packages_Django-1_4_3-py2_7_egg_django_db_transaction'
p872
(dp873
g6
(dp874
g8
S'_home_mike_Documents_python_django-mike_lib_python2_7_site-packages_Django-1_4_3-py2_7_egg_django_db_transaction.html'
p875
sg10
S'/home/mike/Documents/python/django-mike/lib/python2.7/site-packages/Django-1.4.3-py2.7.egg/django/db/transaction'
p876
sg12
g13
(g14
g15
NtRp877
(dp878
g18
I1
sg19
I0
sg20
I131
sg21
I0
sg22
I0
sg23
I62
sg24
I0
sbssg25
S'Z\xf0\x13\x0e/\x96\x06T\xe8&\r\x9b\xa0\xdf\xfav'
p879
ssS'_home_mike_Documents_python_django-mike_lib_python2_7_site-packages_tastypie_utils_dict'
p880
(dp881
g56
(dp882
g8
S'_home_mike_Documents_python_django-mike_lib_python2_7_site-packages_tastypie_utils_dict.html'
p883
sg10
S'/home/mike/Documents/python/django-mike/lib/python2.7/site-packages/tastypie/utils/dict'
p884
sg12
g13
(g14
g15
NtRp885
(dp886
g18
I1
sg19
I0
sg20
I5
sg21
I0
sg22
I0
sg23
I4
sg24
I0
sbssg62
S'\xe9\xa0X\xdf\xbf]\x8eZ\x8a\xb5^eU\xf9(\xa3'
p887
ssS'_home_mike_Documents_python_django-mike_lib_python2_7_site-packages_tastypie_validation'
p888
(dp889
g56
(dp890
g8
S'_home_mike_Documents_python_django-mike_lib_python2_7_site-packages_tastypie_validation.html'
p891
sg10
S'/home/mike/Documents/python/django-mike/lib/python2.7/site-packages/tastypie/validation'
p892
sg12
g13
(g14
g15
NtRp893
(dp894
g18
I1
sg19
I0
sg20
I37
sg21
I0
sg22
I0
sg23
I24
sg24
I0
sbssg62
S'\xf6\xaa\xfd\xc03\xbf@\xb2\x91\xa5DR\xf8\xe9\x9a\x0b'
p895
ssS'_home_mike_Documents_python_django-mike_lib_python2_7_site-packages_Django-1_4_3-py2_7_egg_django_db_models_deletion'
p896
(dp897
g6
(dp898
g30
S'_home_mike_Documents_python_django-mike_lib_python2_7_site-packages_Django-1_4_3-py2_7_egg_django_db_models_deletion.html'
p899
sg32
S'/home/mike/Documents/python/django-mike/lib/python2.7/site-packages/Django-1.4.3-py2.7.egg/django/db/models/deletion'
p900
sg34
g13
(g14
g15
NtRp901
(dp902
g18
I1
sg19
I0
sg20
I146
sg21
I0
sg22
I0
sg23
I117
sg24
I0
sbssg25
S'\xf9\xd8\x05\xa4\xca\xfc-\x83\x16z\x85\x95\x99\t_\xef'
p903
ssS'_home_mike_Documents_python_django-mike_lib_python2_7_site-packages_Django-1_4_3-py2_7_egg_django_utils_text'
p904
(dp905
g6
(dp906
g8
S'_home_mike_Documents_python_django-mike_lib_python2_7_site-packages_Django-1_4_3-py2_7_egg_django_utils_text.html'
p907
sg10
S'/home/mike/Documents/python/django-mike/lib/python2.7/site-packages/Django-1.4.3-py2.7.egg/django/utils/text'
p908
sg12
g13
(g14
g15
NtRp909
(dp910
g18
I1
sg19
I0
sg20
I210
sg21
I0
sg22
I0
sg23
I144
sg24
I0
sbssg25
S'\x84\xb5\x84\x97]b\r\xdb\x84\x84\xee\xdeGO\xf8K'
p911
ssS'_home_mike_Documents_python_django-mike_lib_python2_7_site-packages_Django-1_4_3-py2_7_egg_django_core_signals'
p912
(dp913
g6
(dp914
g30
S'_home_mike_Documents_python_django-mike_lib_python2_7_site-packages_Django-1_4_3-py2_7_egg_django_core_signals.html'
p915
sg32
S'/home/mike/Documents/python/django-mike/lib/python2.7/site-packages/Django-1.4.3-py2.7.egg/django/core/signals'
p916
sg34
g13
(g14
g15
NtRp917
(dp918
g18
I1
sg19
I0
sg20
I4
sg21
I0
sg22
I0
sg23
I0
sg24
I0
sbssg25
S'\xa8\x92\x82\x13=\x82/\x06\xba\xb2\xa6\xad\xc4o\x81\xc2'
p919
ssS'_home_mike_Documents_python_django-mike_lib_python2_7_site-packages_dateutil___init__'
p920
(dp921
g56
(dp922
g8
S'_home_mike_Documents_python_django-mike_lib_python2_7_site-packages_dateutil___init__.html'
p923
sg10
S'/home/mike/Documents/python/django-mike/lib/python2.7/site-packages/dateutil/__init__'
p924
sg12
g13
(g14
g15
NtRp925
(dp926
g18
I1
sg19
I0
sg20
I4
sg21
I0
sg22
I0
sg23
I0
sg24
I0
sbssg62
S'w\xe4Y\xad\r\xcc\xf4\xdc\xa9\xcb2\xad\xff\xcb\xedh'
p927
ssS'django_test_urls'
p928
(dp929
g56
(dp930
g8
S'django_test_urls.html'
p931
sg10
S'django_test/urls'
p932
sg12
g13
(g14
g15
NtRp933
(dp934
g18
I1
sg19
I0
sg20
I4
sg21
I0
sg22
I0
sg23
I0
sg24
I0
sbssg62
S'\x1d\xb4\xb62\xce%\x15a\x0c\x048\xda\xe8\rM\x17'
p935
ssS'article_models'
p936
(dp937
g6
(dp938
g8
S'article_models.html'
p939
sg10
S'article/models'
p940
sg12
g13
(g14
g15
NtRp941
(dp942
g18
I1
sg19
I0
sg20
I19
sg21
I0
sg22
I0
sg23
I0
sg24
I0
sbssg25
S'Bg\x91\nl\x8f?\x99\xe7_$\x8e\xb1\xe9Y\x93'
p943
ssS'_home_mike_Documents_python_django-mike_lib_python2_7_site-packages_Django-1_4_3-py2_7_egg_django_template_loader_tags'
p944
(dp945
g6
(dp946
g8
S'_home_mike_Documents_python_django-mike_lib_python2_7_site-packages_Django-1_4_3-py2_7_egg_django_template_loader_tags.html'
p947
sg10
S'/home/mike/Documents/python/django-mike/lib/python2.7/site-packages/Django-1.4.3-py2.7.egg/django/template/loader_tags'
p948
sg12
g13
(g14
g15
NtRp949
(dp950
g18
I1
sg19
I0
sg20
I177
sg21
I0
sg22
I0
sg23
I79
sg24
I0
sbssg25
S'Ap\xf3\x8c\xb5Y\x02\xeb\x91 gj\xeat3\xb1'
p951
ssS'_home_mike_Documents_python_django-mike_lib_python2_7_site-packages_Django-1_4_3-py2_7_egg_django_contrib_admin___init__'
p952
(dp953
g6
(dp954
g8
S'_home_mike_Documents_python_django-mike_lib_python2_7_site-packages_Django-1_4_3-py2_7_egg_django_contrib_admin___init__.html'
p955
sg10
S'/home/mike/Documents/python/django-mike/lib/python2.7/site-packages/Django-1.4.3-py2.7.egg/django/contrib/admin/__init__'
p956
sg12
g13
(g14
g15
NtRp957
(dp958
g18
I1
sg19
I0
sg20
I19
sg21
I0
sg22
I0
sg23
I1
sg24
I0
sbssg25
S"\xd5?\x9e\xd9\x8c\x0c\x92\xe6'\x9e\x10l\xc5\xcd\xb8p"
p959
ssS'_home_mike_Documents_python_django-mike_lib_python2_7_site-packages_Django-1_4_3-py2_7_egg_django_db_models_fields_related'
p960
(dp961
g6
(dp962
g8
S'_home_mike_Documents_python_django-mike_lib_python2_7_site-packages_Django-1_4_3-py2_7_egg_django_db_models_fields_related.html'
p963
sg10
S'/home/mike/Documents/python/django-mike/lib/python2.7/site-packages/Django-1.4.3-py2.7.egg/django/db/models/fields/related'
p964
sg12
g13
(g14
g15
NtRp965
(dp966
g18
I1
sg19
I0
sg20
I713
sg21
I0
sg22
I0
sg23
I397
sg24
I0
sbssg25
S'(\xa1\x0b\xccY\xe4y\x04\xad\xeeX\x1b8\x9a\xba\xee'
p967
ssS'_home_mike_Documents_python_django-mike_lib_python2_7_site-packages_Django-1_4_3-py2_7_egg_django_contrib_messages_storage___init__'
p968
(dp969
g6
(dp970
g8
S'_home_mike_Documents_python_django-mike_lib_python2_7_site-packages_Django-1_4_3-py2_7_egg_django_contrib_messages_storage___init__.html'
p971
sg10
S'/home/mike/Documents/python/django-mike/lib/python2.7/site-packages/Django-1.4.3-py2.7.egg/django/contrib/messages/storage/__init__'
p972
sg12
g13
(g14
g15
NtRp973
(dp974
g18
I1
sg19
I0
sg20
I18
sg21
I0
sg22
I0
sg23
I6
sg24
I0
sbssg25
S'C\xb5\x80\x0b\xc9\xcd2\xe5\xfe\x07S\xa0\xf5J\xe1_'
p975
ssS'_home_mike_Documents_python_django-mike_lib_python2_7_site-packages_Django-1_4_3-py2_7_egg_django_views_debug'
p976
(dp977
g6
(dp978
g30
S'_home_mike_Documents_python_django-mike_lib_python2_7_site-packages_Django-1_4_3-py2_7_egg_django_views_debug.html'
p979
sg32
S'/home/mike/Documents/python/django-mike/lib/python2.7/site-packages/Django-1.4.3-py2.7.egg/django/views/debug'
p980
sg34
g13
(g14
g15
NtRp981
(dp982
g18
I1
sg19
I0
sg20
I274
sg21
I0
sg22
I0
sg23
I230
sg24
I0
sbssg25
S'E\x1f\x8e\xc1[\xc0\xa1\xf0{\xa5;G!T\xff\x9f'
p983
ssS'_home_mike_Documents_python_django-mike_lib_python2_7_site-packages_Django-1_4_3-py2_7_egg_django_core_cache_backends_base'
p984
(dp985
g6
(dp986
g30
S'_home_mike_Documents_python_django-mike_lib_python2_7_site-packages_Django-1_4_3-py2_7_egg_django_core_cache_backends_base.html'
p987
sg32
S'/home/mike/Documents/python/django-mike/lib/python2.7/site-packages/Django-1.4.3-py2.7.egg/django/core/cache/backends/base'
p988
sg34
g13
(g14
g15
NtRp989
(dp990
g18
I1
sg19
I0
sg20
I99
sg21
I0
sg22
I0
sg23
I54
sg24
I0
sbssg25
S'#J\xfe\x1c\xfd\x80\xd1t9\x81\xdc\x9b\xcf\xc9\xd6\xeb'
p991
ssS'_home_mike_Documents_python_django-mike_lib_python2_7_site-packages_Django-1_4_3-py2_7_egg_django_core_serializers_xml_serializer'
p992
(dp993
g6
(dp994
g30
S'_home_mike_Documents_python_django-mike_lib_python2_7_site-packages_Django-1_4_3-py2_7_egg_django_core_serializers_xml_serializer.html'
p995
sg32
S'/home/mike/Documents/python/django-mike/lib/python2.7/site-packages/Django-1.4.3-py2.7.egg/django/core/serializers/xml_serializer'
p996
sg34
g13
(g14
g15
NtRp997
(dp998
g18
I1
sg19
I0
sg20
I150
sg21
I0
sg22
I0
sg23
I126
sg24
I0
sbssg25
S'\xdci\x10/\xa1\xe4\xb3\xfe\x00\xc6h\xdd\x056\x10\xbd'
p999
ssS'_home_mike_Documents_python_django-mike_lib_python2_7_site-packages_Django-1_4_3-py2_7_egg_django_contrib_staticfiles_utils'
p1000
(dp1001
g6
(dp1002
g30
S'_home_mike_Documents_python_django-mike_lib_python2_7_site-packages_Django-1_4_3-py2_7_egg_django_contrib_staticfiles_utils.html'
p1003
sg32
S'/home/mike/Documents/python/django-mike/lib/python2.7/site-packages/Django-1.4.3-py2.7.egg/django/contrib/staticfiles/utils'
p1004
sg34
g13
(g14
g15
NtRp1005
(dp1006
g18
I1
sg19
I0
sg20
I37
sg21
I0
sg22
I0
sg23
I30
sg24
I0
sbssg25
S'Q\x99\xe3\x98\xf4\xbc\tTg\xbc\xed\xbd\\\xf9Q\xdd'
p1007
ssS'_home_mike_Documents_python_django-mike_lib_python2_7_site-packages_Django-1_4_3-py2_7_egg_django_contrib_messages_storage_base'
p1008
(dp1009
g56
(dp1010
g8
S'_home_mike_Documents_python_django-mike_lib_python2_7_site-packages_Django-1_4_3-py2_7_egg_django_contrib_messages_storage_base.html'
p1011
sg10
S'/home/mike/Documents/python/django-mike/lib/python2.7/site-packages/Django-1.4.3-py2.7.egg/django/contrib/messages/storage/base'
p1012
sg12
g13
(g14
g15
NtRp1013
(dp1014
g18
I1
sg19
I0
sg20
I81
sg21
I0
sg22
I0
sg23
I47
sg24
I0
sbssg62
S'\x9b\x9d-\x8a\xbfx\x10\xb2;\xe1\x8e\xfch\xef\xc9\xe8'
p1015
ssS'_home_mike_Documents_python_django-mike_lib_python2_7_site-packages_Django-1_4_3-py2_7_egg_django_template_loaders_cached'
p1016
(dp1017
g6
(dp1018
g30
S'_home_mike_Documents_python_django-mike_lib_python2_7_site-packages_Django-1_4_3-py2_7_egg_django_template_loaders_cached.html'
p1019
sg32
S'/home/mike/Documents/python/django-mike/lib/python2.7/site-packages/Django-1.4.3-py2.7.egg/django/template/loaders/cached'
p1020
sg34
g13
(g14
g15
NtRp1021
(dp1022
g18
I1
sg19
I0
sg20
I39
sg21
I0
sg22
I0
sg23
I29
sg24
I0
sbssg25
S'\xbd\x94\xffb;\xa88z\x13\xeezM[\x94x\xb4'
p1023
ssS'_home_mike_Documents_python_django-mike_lib_python2_7_site-packages_Django-1_4_3-py2_7_egg_django_core_serializers_base'
p1024
(dp1025
g6
(dp1026
g30
S'_home_mike_Documents_python_django-mike_lib_python2_7_site-packages_Django-1_4_3-py2_7_egg_django_core_serializers_base.html'
p1027
sg32
S'/home/mike/Documents/python/django-mike/lib/python2.7/site-packages/Django-1.4.3-py2.7.egg/django/core/serializers/base'
p1028
sg34
g13
(g14
g15
NtRp1029
(dp1030
g18
I1
sg19
I0
sg20
I74
sg21
I0
sg22
I0
sg23
I46
sg24
I0
sbssg25
S'\xfca\xe3x\xd1\xc5\x90\x8b\xcd\x06T\x1frS\xb1P'
p1031
ssS'_home_mike_Documents_python_django-mike_lib_python2_7_site-packages_Django-1_4_3-py2_7_egg_django_contrib_auth___init__'
p1032
(dp1033
g6
(dp1034
g30
S'_home_mike_Documents_python_django-mike_lib_python2_7_site-packages_Django-1_4_3-py2_7_egg_django_contrib_auth___init__.html'
p1035
sg32
S'/home/mike/Documents/python/django-mike/lib/python2.7/site-packages/Django-1.4.3-py2.7.egg/django/contrib/auth/__init__'
p1036
sg34
g13
(g14
g15
NtRp1037
(dp1038
g18
I1
sg19
I0
sg20
I73
sg21
I0
sg22
I0
sg23
I60
sg24
I0
sbssg25
S'B_M\x9d\x87\xec\xba\x84W\x9b\xf6\x96\xf9oC\x9c'
p1039
ssS'_home_mike_Documents_python_django-mike_lib_python2_7_site-packages_dateutil_parser'
p1040
(dp1041
g56
(dp1042
g8
S'_home_mike_Documents_python_django-mike_lib_python2_7_site-packages_dateutil_parser.html'
p1043
sg10
S'/home/mike/Documents/python/django-mike/lib/python2.7/site-packages/dateutil/parser'
p1044
sg12
g13
(g14
g15
NtRp1045
(dp1046
g18
I1
sg19
I0
sg20
I626
sg21
I0
sg22
I0
sg23
I539
sg24
I0
sbssg62
S'\xe7\x8eV\xb7\xd7\x08FC\x96\x9a\x86\xe9\xda\xbb\xc3\x03'
p1047
ssS'_home_mike_Documents_python_django-mike_lib_python2_7_site-packages_Django-1_4_3-py2_7_egg_django_forms_formsets'
p1048
(dp1049
g6
(dp1050
g30
S'_home_mike_Documents_python_django-mike_lib_python2_7_site-packages_Django-1_4_3-py2_7_egg_django_forms_formsets.html'
p1051
sg32
S'/home/mike/Documents/python/django-mike/lib/python2.7/site-packages/Django-1.4.3-py2.7.egg/django/forms/formsets'
p1052
sg34
g13
(g14
g15
NtRp1053
(dp1054
g18
I1
sg19
I0
sg20
I216
sg21
I0
sg22
I0
sg23
I155
sg24
I0
sbssg25
S'U]O\xd9_\xeb\n<EfSe\xd0b\x17\xfd'
p1055
ssS'_home_mike_Documents_python_django-mike_lib_python2_7_site-packages_Django-1_4_3-py2_7_egg_django_db_models_sql___init__'
p1056
(dp1057
g6
(dp1058
g30
S'_home_mike_Documents_python_django-mike_lib_python2_7_site-packages_Django-1_4_3-py2_7_egg_django_db_models_sql___init__.html'
p1059
sg32
S'/home/mike/Documents/python/django-mike/lib/python2.7/site-packages/Django-1.4.3-py2.7.egg/django/db/models/sql/__init__'
p1060
sg34
g13
(g14
g15
NtRp1061
(dp1062
g18
I1
sg19
I0
sg20
I6
sg21
I0
sg22
I0
sg23
I0
sg24
I0
sbssg25
S'\xea\xf8\xff\x94\xe8\x06\xd7@N\x8e\xb9\x9b)&=f'
p1063
ssS'_home_mike_Documents_python_django-mike_lib_python2_7_site-packages_Django-1_4_3-py2_7_egg_django_utils_unittest_util'
p1064
(dp1065
g6
(dp1066
g30
S'_home_mike_Documents_python_django-mike_lib_python2_7_site-packages_Django-1_4_3-py2_7_egg_django_utils_unittest_util.html'
p1067
sg32
S'/home/mike/Documents/python/django-mike/lib/python2.7/site-packages/Django-1.4.3-py2.7.egg/django/utils/unittest/util'
p1068
sg34
g13
(g14
g15
NtRp1069
(dp1070
g18
I1
sg19
I0
sg20
I74
sg21
I0
sg22
I0
sg23
I67
sg24
I0
sbssg25
S'\xb2x_,\x84YY\x16\x91\xcb5(\xe8\x1c<\t'
p1071
ssS'_home_mike_Documents_python_django-mike_lib_python2_7_site-packages_defusedxml___init__'
p1072
(dp1073
g56
(dp1074
g8
S'_home_mike_Documents_python_django-mike_lib_python2_7_site-packages_defusedxml___init__.html'
p1075
sg10
S'/home/mike/Documents/python/django-mike/lib/python2.7/site-packages/defusedxml/__init__'
p1076
sg12
g13
(g14
g15
NtRp1077
(dp1078
g18
I1
sg19
I0
sg20
I20
sg21
I0
sg22
I0
sg23
I15
sg24
I0
sbssg62
S'9\x02\x04\x82\x13r\xfe\x7f\x8fd\xf9\x07l\r\xc1\xaa'
p1079
ssS'_home_mike_Documents_python_django-mike_lib_python2_7_site-packages_Django-1_4_3-py2_7_egg_django_core_management_commands_flush'
p1080
(dp1081
g6
(dp1082
g30
S'_home_mike_Documents_python_django-mike_lib_python2_7_site-packages_Django-1_4_3-py2_7_egg_django_core_management_commands_flush.html'
p1083
sg32
S'/home/mike/Documents/python/django-mike/lib/python2.7/site-packages/Django-1.4.3-py2.7.egg/django/core/management/commands/flush'
p1084
sg34
g13
(g14
g15
NtRp1085
(dp1086
g18
I1
sg19
I0
sg20
I43
sg21
I0
sg22
I0
sg23
I5
sg24
I0
sbssg25
S'\x83j\xb4\xe8x\xd3\xaf\x11~\x1a\xeaNL)\xe0I'
p1087
ssS'_home_mike_Documents_python_django-mike_lib_python2_7_site-packages_Django-1_4_3-py2_7_egg_django_contrib_contenttypes_views'
p1088
(dp1089
g6
(dp1090
g30
S'_home_mike_Documents_python_django-mike_lib_python2_7_site-packages_Django-1_4_3-py2_7_egg_django_contrib_contenttypes_views.html'
p1091
sg32
S'/home/mike/Documents/python/django-mike/lib/python2.7/site-packages/Django-1.4.3-py2.7.egg/django/contrib/contenttypes/views'
p1092
sg34
g13
(g14
g15
NtRp1093
(dp1094
g18
I1
sg19
I0
sg20
I49
sg21
I0
sg22
I0
sg23
I43
sg24
I0
sbssg25
S'\x9a\x02]\x07#\xb5\x9e\x0c\xa1\xd2\x93\x89^\xeeF\xa7'
p1095
ssS'_home_mike_Documents_python_django-mike_lib_python2_7_site-packages_Django-1_4_3-py2_7_egg_django_http_utils'
p1096
(dp1097
g6
(dp1098
g8
S'_home_mike_Documents_python_django-mike_lib_python2_7_site-packages_Django-1_4_3-py2_7_egg_django_http_utils.html'
p1099
sg10
S'/home/mike/Documents/python/django-mike/lib/python2.7/site-packages/Django-1.4.3-py2.7.egg/django/http/utils'
p1100
sg12
g13
(g14
g15
NtRp1101
(dp1102
g18
I1
sg19
I0
sg20
I39
sg21
I0
sg22
I0
sg23
I24
sg24
I0
sbssg25
S'\x12\x98\x0f\xb7\xe7\x05\xea\xbePgu\x11\x93\xb1\x8d\xed'
p1103
ssS'_home_mike_Documents_python_django-mike_lib_python2_7_site-packages_Django-1_4_3-py2_7_egg_django_template_defaultfilters'
p1104
(dp1105
g6
(dp1106
g8
S'_home_mike_Documents_python_django-mike_lib_python2_7_site-packages_Django-1_4_3-py2_7_egg_django_template_defaultfilters.html'
p1107
sg10
S'/home/mike/Documents/python/django-mike/lib/python2.7/site-packages/Django-1.4.3-py2.7.egg/django/template/defaultfilters'
p1108
sg12
g13
(g14
g15
NtRp1109
(dp1110
g18
I1
sg19
I0
sg20
I457
sg21
I0
sg22
I0
sg23
I317
sg24
I0
sbssg25
S'$kr\xceT\xc2 fv\xc9\x19\x8f\xef\xc8$\xcb'
p1111
ssS'_home_mike_Documents_python_django-mike_lib_python2_7_site-packages_Django-1_4_3-py2_7_egg_django_core_management_commands_syncdb'
p1112
(dp1113
g6
(dp1114
g30
S'_home_mike_Documents_python_django-mike_lib_python2_7_site-packages_Django-1_4_3-py2_7_egg_django_core_management_commands_syncdb.html'
p1115
sg32
S'/home/mike/Documents/python/django-mike/lib/python2.7/site-packages/Django-1.4.3-py2.7.egg/django/core/management/commands/syncdb'
p1116
sg34
g13
(g14
g15
NtRp1117
(dp1118
g18
I1
sg19
I0
sg20
I100
sg21
I0
sg22
I0
sg23
I21
sg24
I0
sbssg25
S'l\xf90(-dvzQ$\xc8H{\xe2\xed\xef'
p1119
ssS'article_tests'
p1120
(dp1121
g6
(dp1122
g8
S'article_tests.html'
p1123
sg10
S'article/tests'
p1124
sg12
g13
(g14
g15
NtRp1125
(dp1126
g18
I1
sg19
I0
sg20
I30
sg21
I0
sg22
I0
sg23
I0
sg24
I0
sbssg25
S'\xff\x98\xcf}N[\xb7e\xfd\xac#K\xa50\xc4c'
p1127
ssS'_home_mike_Documents_python_django-mike_lib_python2_7_site-packages_Django-1_4_3-py2_7_egg_django_template_smartif'
p1128
(dp1129
g6
(dp1130
g8
S'_home_mike_Documents_python_django-mike_lib_python2_7_site-packages_Django-1_4_3-py2_7_egg_django_template_smartif.html'
p1131
sg10
S'/home/mike/Documents/python/django-mike/lib/python2.7/site-packages/Django-1.4.3-py2.7.egg/django/template/smartif'
p1132
sg12
g13
(g14
g15
NtRp1133
(dp1134
g18
I1
sg19
I0
sg20
I104
sg21
I0
sg22
I0
sg23
I23
sg24
I0
sbssg25
S'`2\x9b\xb1RP:=GT_b\xa8\xd0\x97{'
p1135
ssS'_home_mike_Documents_python_django-mike_lib_python2_7_site-packages_tastypie_bundle'
p1136
(dp1137
g56
(dp1138
g8
S'_home_mike_Documents_python_django-mike_lib_python2_7_site-packages_tastypie_bundle.html'
p1139
sg10
S'/home/mike/Documents/python/django-mike/lib/python2.7/site-packages/tastypie/bundle'
p1140
sg12
g13
(g14
g15
NtRp1141
(dp1142
g18
I1
sg19
I0
sg20
I13
sg21
I0
sg22
I0
sg23
I9
sg24
I0
sbssg62
S'[Z\xfaAdp\xb5L\n\x8d\xa6\xa0a\xe2\xe9\xa6'
p1143
ssS'_home_mike_Documents_python_django-mike_lib_python2_7_site-packages_Django-1_4_3-py2_7_egg_django_contrib_staticfiles_templatetags___init__'
p1144
(dp1145
g6
(dp1146
g30
S'_home_mike_Documents_python_django-mike_lib_python2_7_site-packages_Django-1_4_3-py2_7_egg_django_contrib_staticfiles_templatetags___init__.html'
p1147
sg32
S'/home/mike/Documents/python/django-mike/lib/python2.7/site-packages/Django-1.4.3-py2.7.egg/django/contrib/staticfiles/templatetags/__init__'
p1148
sg34
g13
(g14
g15
NtRp1149
(dp1150
g18
I1
sg19
I0
sg20
I0
sg21
I0
sg22
I0
sg23
I0
sg24
I0
sbssg25
S'\xb0\xc8pN\xaf>\xa0\xbaz\x144\xe0A9\xb8?'
p1151
ssS'_home_mike_Documents_python_django-mike_lib_python2_7_site-packages_Django-1_4_3-py2_7_egg_django_core___init__'
p1152
(dp1153
g6
(dp1154
g30
S'_home_mike_Documents_python_django-mike_lib_python2_7_site-packages_Django-1_4_3-py2_7_egg_django_core___init__.html'
p1155
sg32
S'/home/mike/Documents/python/django-mike/lib/python2.7/site-packages/Django-1.4.3-py2.7.egg/django/core/__init__'
p1156
sg34
g13
(g14
g15
NtRp1157
(dp1158
g18
I1
sg19
I0
sg20
I0
sg21
I0
sg22
I0
sg23
I0
sg24
I0
sbssg25
S'\xb0\xc8pN\xaf>\xa0\xbaz\x144\xe0A9\xb8?'
p1159
ssS'_home_mike_Documents_python_django-mike_lib_python2_7_site-packages_Django-1_4_3-py2_7_egg_django_utils_tree'
p1160
(dp1161
g6
(dp1162
g30
S'_home_mike_Documents_python_django-mike_lib_python2_7_site-packages_Django-1_4_3-py2_7_egg_django_utils_tree.html'
p1163
sg32
S'/home/mike/Documents/python/django-mike/lib/python2.7/site-packages/Django-1.4.3-py2.7.egg/django/utils/tree'
p1164
sg34
g13
(g14
g15
NtRp1165
(dp1166
g18
I1
sg19
I0
sg20
I62
sg21
I0
sg22
I0
sg23
I18
sg24
I0
sbssg25
S'5I\xa85\xa0#Y\x00\xce\xe3\xc4\xb0=7\xaa\x8c'
p1167
ssS'_home_mike_Documents_python_django-mike_lib_python2_7_site-packages_Django-1_4_3-py2_7_egg_django_template_response'
p1168
(dp1169
g6
(dp1170
g30
S'_home_mike_Documents_python_django-mike_lib_python2_7_site-packages_Django-1_4_3-py2_7_egg_django_template_response.html'
p1171
sg32
S'/home/mike/Documents/python/django-mike/lib/python2.7/site-packages/Django-1.4.3-py2.7.egg/django/template/response'
p1172
sg34
g13
(g14
g15
NtRp1173
(dp1174
g18
I1
sg19
I0
sg20
I72
sg21
I0
sg22
I0
sg23
I50
sg24
I0
sbssg25
S'\xb1\xac\xaba\xdcM\xb4\x07\xb1\xe5\xcb\xf3\x13&v\xf8'
p1175
ssS'_home_mike_Documents_python_django-mike_lib_python2_7_site-packages_Django-1_4_3-py2_7_egg_django_http___init__'
p1176
(dp1177
g6
(dp1178
g8
S'_home_mike_Documents_python_django-mike_lib_python2_7_site-packages_Django-1_4_3-py2_7_egg_django_http___init__.html'
p1179
sg10
S'/home/mike/Documents/python/django-mike/lib/python2.7/site-packages/Django-1.4.3-py2.7.egg/django/http/__init__'
p1180
sg12
g13
(g14
g15
NtRp1181
(dp1182
g18
I1
sg19
I0
sg20
I496
sg21
I0
sg22
I0
sg23
I289
sg24
I0
sbssg25
S'\xd6\xca\xad\x7fh\xff:e\xaf\xceF|\xc5\x95\x87\x9e'
p1183
ssS'_home_mike_Documents_python_django-mike_lib_python2_7_site-packages_Django-1_4_3-py2_7_egg_django_contrib_sessions_backends_db'
p1184
(dp1185
g6
(dp1186
g8
S'_home_mike_Documents_python_django-mike_lib_python2_7_site-packages_Django-1_4_3-py2_7_egg_django_contrib_sessions_backends_db.html'
p1187
sg10
S'/home/mike/Documents/python/django-mike/lib/python2.7/site-packages/Django-1.4.3-py2.7.egg/django/contrib/sessions/backends/db'
p1188
sg12
g13
(g14
g15
NtRp1189
(dp1190
g18
I1
sg19
I0
sg20
I48
sg21
I0
sg22
I0
sg23
I34
sg24
I0
sbssg25
S'\x8e\xfb\xd9\xdc\xadR[\xf6\xe7q\xd2\xb6MX\xb52'
p1191
ssS'_home_mike_Documents_python_django-mike_lib_python2_7_site-packages_Django-1_4_3-py2_7_egg_django_core_management_base'
p1192
(dp1193
g6
(dp1194
g30
S'_home_mike_Documents_python_django-mike_lib_python2_7_site-packages_Django-1_4_3-py2_7_egg_django_core_management_base.html'
p1195
sg32
S'/home/mike/Documents/python/django-mike/lib/python2.7/site-packages/Django-1.4.3-py2.7.egg/django/core/management/base'
p1196
sg34
g13
(g14
g15
NtRp1197
(dp1198
g18
I1
sg19
I0
sg20
I133
sg21
I0
sg22
I0
sg23
I56
sg24
I0
sbssg25
S'\x8e\x15\x17\xb7\xc1\xd2\xd1M\x17\xb0\\6\xb0o\xc7t'
p1199
ssS'manage'
p1200
(dp1201
g6
(dp1202
g30
S'manage.html'
p1203
sg32
g1200
sg34
g13
(g14
g15
NtRp1204
(dp1205
g18
I1
sg19
I0
sg20
I6
sg21
I0
sg22
I0
sg23
I0
sg24
I0
sbssg25
S'1\x1e$\xe3\x13/\x93\x01B\xb50\xb9\x05\x0c;\x87'
p1206
ssS'_home_mike_Documents_python_django-mike_lib_python2_7_site-packages_Django-1_4_3-py2_7_egg_django_utils_dateformat'
p1207
(dp1208
g6
(dp1209
g30
S'_home_mike_Documents_python_django-mike_lib_python2_7_site-packages_Django-1_4_3-py2_7_egg_django_utils_dateformat.html'
p1210
sg32
S'/home/mike/Documents/python/django-mike/lib/python2.7/site-packages/Django-1.4.3-py2.7.egg/django/utils/dateformat'
p1211
sg34
g13
(g14
g15
NtRp1212
(dp1213
g18
I1
sg19
I0
sg20
I179
sg21
I0
sg22
I0
sg23
I119
sg24
I0
sbssg25
S'\xdc\xcf>\x08@dl\xf9\xb7\x16\x8bmQ\x05\x80?'
p1214
ssS'_home_mike_Documents_python_django-mike_lib_python2_7_site-packages_Django-1_4_3-py2_7_egg_django_views_decorators_debug'
p1215
(dp1216
g56
(dp1217
g8
S'_home_mike_Documents_python_django-mike_lib_python2_7_site-packages_Django-1_4_3-py2_7_egg_django_views_decorators_debug.html'
p1218
sg10
S'/home/mike/Documents/python/django-mike/lib/python2.7/site-packages/Django-1.4.3-py2.7.egg/django/views/decorators/debug'
p1219
sg12
g13
(g14
g15
NtRp1220
(dp1221
g18
I1
sg19
I0
sg20
I19
sg21
I0
sg22
I0
sg23
I12
sg24
I0
sbssg62
S'\x1e\xb3\xaf.\xf3RuS\t\x01\xca\x8f$\r\xa6\x8c'
p1222
ssS'_home_mike_Documents_python_django-mike_lib_python2_7_site-packages_Django-1_4_3-py2_7_egg_django_db_models_signals'
p1223
(dp1224
g6
(dp1225
g30
S'_home_mike_Documents_python_django-mike_lib_python2_7_site-packages_Django-1_4_3-py2_7_egg_django_db_models_signals.html'
p1226
sg32
S'/home/mike/Documents/python/django-mike/lib/python2.7/site-packages/Django-1.4.3-py2.7.egg/django/db/models/signals'
p1227
sg34
g13
(g14
g15
NtRp1228
(dp1229
g18
I1
sg19
I0
sg20
I10
sg21
I0
sg22
I0
sg23
I0
sg24
I0
sbssg25
S'\xe2\x06\xfb\xdd\xac\xd4\xb2\xf8\\\x98T_\xb1W-\x19'
p1230
ssS'_home_mike_Documents_python_django-mike_lib_python2_7_site-packages_Django-1_4_3-py2_7_egg_django_core_serializers_python'
p1231
(dp1232
g6
(dp1233
g30
S'_home_mike_Documents_python_django-mike_lib_python2_7_site-packages_Django-1_4_3-py2_7_egg_django_core_serializers_python.html'
p1234
sg32
S'/home/mike/Documents/python/django-mike/lib/python2.7/site-packages/Django-1.4.3-py2.7.egg/django/core/serializers/python'
p1235
sg34
g13
(g14
g15
NtRp1236
(dp1237
g18
I1
sg19
I0
sg20
I78
sg21
I0
sg22
I0
sg23
I62
sg24
I0
sbssg25
S'\xe1\xe7\x12\xa2\xca\xdc\xf5\xa3DW\x8f\x1b\x816H\xe3'
p1238
ssS'_home_mike_Documents_python_django-mike_lib_python2_7_site-packages_Django-1_4_3-py2_7_egg_django_conf_locale___init__'
p1239
(dp1240
g6
(dp1241
g30
S'_home_mike_Documents_python_django-mike_lib_python2_7_site-packages_Django-1_4_3-py2_7_egg_django_conf_locale___init__.html'
p1242
sg32
S'/home/mike/Documents/python/django-mike/lib/python2.7/site-packages/Django-1.4.3-py2.7.egg/django/conf/locale/__init__'
p1243
sg34
g13
(g14
g15
NtRp1244
(dp1245
g18
I1
sg19
I0
sg20
I1
sg21
I0
sg22
I0
sg23
I0
sg24
I0
sbssg25
S'\xca\x13\xff\x014\xc8\xe6I\xcb\xd3B<uIk\xbe'
p1246
ssS'_home_mike_Documents_python_django-mike_lib_python2_7_site-packages_Django-1_4_3-py2_7_egg_django_core_cache_backends___init__'
p1247
(dp1248
g6
(dp1249
g30
S'_home_mike_Documents_python_django-mike_lib_python2_7_site-packages_Django-1_4_3-py2_7_egg_django_core_cache_backends___init__.html'
p1250
sg32
S'/home/mike/Documents/python/django-mike/lib/python2.7/site-packages/Django-1.4.3-py2.7.egg/django/core/cache/backends/__init__'
p1251
sg34
g13
(g14
g15
NtRp1252
(dp1253
g18
I1
sg19
I0
sg20
I0
sg21
I0
sg22
I0
sg23
I0
sg24
I0
sbssg25
S'\xb0\xc8pN\xaf>\xa0\xbaz\x144\xe0A9\xb8?'
p1254
ssS'_home_mike_Documents_python_django-mike_lib_python2_7_site-packages_tastypie_utils_mime'
p1255
(dp1256
g56
(dp1257
g8
S'_home_mike_Documents_python_django-mike_lib_python2_7_site-packages_tastypie_utils_mime.html'
p1258
sg10
S'/home/mike/Documents/python/django-mike/lib/python2.7/site-packages/tastypie/utils/mime'
p1259
sg12
g13
(g14
g15
NtRp1260
(dp1261
g18
I1
sg19
I0
sg20
I24
sg21
I0
sg22
I0
sg23
I20
sg24
I0
sbssg62
S'\xbb\x14\x94\xf5]q\x97\xd2\xc9\xa2\xf2z\xb7\x04\xfft'
p1262
ssS'_home_mike_Documents_python_django-mike_lib_python2_7_site-packages_Django-1_4_3-py2_7_egg_django_db_models_fields_files'
p1263
(dp1264
g6
(dp1265
g8
S'_home_mike_Documents_python_django-mike_lib_python2_7_site-packages_Django-1_4_3-py2_7_egg_django_db_models_fields_files.html'
p1266
sg10
S'/home/mike/Documents/python/django-mike/lib/python2.7/site-packages/Django-1.4.3-py2.7.egg/django/db/models/fields/files'
p1267
sg12
g13
(g14
g15
NtRp1268
(dp1269
g18
I1
sg19
I0
sg20
I203
sg21
I0
sg22
I0
sg23
I100
sg24
I0
sbssg25
S'\xdd\xc8\xbat\xf3O\x81\xc9\xb8\xa9\xd1)\x99IQ\xa7'
p1270
ssS'_home_mike_Documents_python_django-mike_lib_python2_7_site-packages_Django-1_4_3-py2_7_egg_django_contrib_messages___init__'
p1271
(dp1272
g6
(dp1273
g30
S'_home_mike_Documents_python_django-mike_lib_python2_7_site-packages_Django-1_4_3-py2_7_egg_django_contrib_messages___init__.html'
p1274
sg32
S'/home/mike/Documents/python/django-mike/lib/python2.7/site-packages/Django-1.4.3-py2.7.egg/django/contrib/messages/__init__'
p1275
sg34
g13
(g14
g15
NtRp1276
(dp1277
g18
I1
sg19
I0
sg20
I3
sg21
I0
sg22
I0
sg23
I0
sg24
I0
sbssg25
S'\x01~\xb7\xc9ZD\xe5N\xc3\x01\xc2\x94u\x0b`\x9e'
p1278
ssS'_home_mike_Documents_python_django-mike_lib_python2_7_site-packages_Django-1_4_3-py2_7_egg_django_contrib_sites_admin'
p1279
(dp1280
g56
(dp1281
g8
S'_home_mike_Documents_python_django-mike_lib_python2_7_site-packages_Django-1_4_3-py2_7_egg_django_contrib_sites_admin.html'
p1282
sg10
S'/home/mike/Documents/python/django-mike/lib/python2.7/site-packages/Django-1.4.3-py2.7.egg/django/contrib/sites/admin'
p1283
sg12
g13
(g14
g15
NtRp1284
(dp1285
g18
I1
sg19
I0
sg20
I6
sg21
I0
sg22
I0
sg23
I0
sg24
I0
sbssg62
S'\x88\xea\x7fX\n\x9c2tI\xac\xb4\xb2\xbd\x0e+\x10'
p1286
ssS'_home_mike_Documents_python_django-mike_lib_python2_7_site-packages_Django-1_4_3-py2_7_egg_django_db_models_base'
p1287
(dp1288
g6
(dp1289
g8
S'_home_mike_Documents_python_django-mike_lib_python2_7_site-packages_Django-1_4_3-py2_7_egg_django_db_models_base.html'
p1290
sg10
S'/home/mike/Documents/python/django-mike/lib/python2.7/site-packages/Django-1.4.3-py2.7.egg/django/db/models/base'
p1291
sg12
g13
(g14
g15
NtRp1292
(dp1293
g18
I1
sg19
I0
sg20
I501
sg21
I0
sg22
I0
sg23
I296
sg24
I0
sbssg25
S'\xfdK\xc78S\x8a\xc6\xdaY\xe1\xdbt\x01\xa6?\xd8'
p1294
ssS'article_api'
p1295
(dp1296
g56
(dp1297
g8
S'article_api.html'
p1298
sg10
S'article/api'
p1299
sg12
g13
(g14
g15
NtRp1300
(dp1301
g18
I1
sg19
I0
sg20
I8
sg21
I0
sg22
I0
sg23
I0
sg24
I0
sbssg62
S"\xc5s\xb9h`'t 3\xbe\xa2\xfc\x82<\x01q"
p1302
ssS'_home_mike_Documents_python_django-mike_lib_python2_7_site-packages_Django-1_4_3-py2_7_egg_django_db_models___init__'
p1303
(dp1304
g6
(dp1305
g30
S'_home_mike_Documents_python_django-mike_lib_python2_7_site-packages_Django-1_4_3-py2_7_egg_django_db_models___init__.html'
p1306
sg32
S'/home/mike/Documents/python/django-mike/lib/python2.7/site-packages/Django-1.4.3-py2.7.egg/django/db/models/__init__'
p1307
sg34
g13
(g14
g15
NtRp1308
(dp1309
g18
I1
sg19
I0
sg20
I23
sg21
I0
sg22
I0
sg23
I5
sg24
I0
sbssg25
S'B\xac\xe1\xdaQ\x957k\x0e\xba`\x9f\xd0\xa2\xd87'
p1310
ssS'_home_mike_Documents_python_django-mike_lib_python2_7_site-packages_Django-1_4_3-py2_7_egg_django_core_files_storage'
p1311
(dp1312
g6
(dp1313
g30
S'_home_mike_Documents_python_django-mike_lib_python2_7_site-packages_Django-1_4_3-py2_7_egg_django_core_files_storage.html'
p1314
sg32
S'/home/mike/Documents/python/django-mike/lib/python2.7/site-packages/Django-1.4.3-py2.7.egg/django/core/files/storage'
p1315
sg34
g13
(g14
g15
NtRp1316
(dp1317
g18
I1
sg19
I0
sg20
I150
sg21
I0
sg22
I0
sg23
I104
sg24
I0
sbssg25
S'G\xe6\x06\xdc\xdb#\xe2EAMn~]\x1d\xe8\xb8'
p1318
ssS'_home_mike_Documents_python_django-mike_lib_python2_7_site-packages_tastypie___init__'
p1319
(dp1320
g56
(dp1321
g8
S'_home_mike_Documents_python_django-mike_lib_python2_7_site-packages_tastypie___init__.html'
p1322
sg10
S'/home/mike/Documents/python/django-mike/lib/python2.7/site-packages/tastypie/__init__'
p1323
sg12
g13
(g14
g15
NtRp1324
(dp1325
g18
I1
sg19
I0
sg20
I2
sg21
I0
sg22
I0
sg23
I0
sg24
I0
sbssg62
S'\xf9TU\xc5\xdfW\x17\xe0\x0b"S\xfd\x8f##\xc9'
p1326
ssS'_home_mike_Documents_python_django-mike_lib_python2_7_site-packages_Django-1_4_3-py2_7_egg_django_core_paginator'
p1327
(dp1328
g6
(dp1329
g30
S'_home_mike_Documents_python_django-mike_lib_python2_7_site-packages_Django-1_4_3-py2_7_egg_django_core_paginator.html'
p1330
sg32
S'/home/mike/Documents/python/django-mike/lib/python2.7/site-packages/Django-1.4.3-py2.7.egg/django/core/paginator'
p1331
sg34
g13
(g14
g15
NtRp1332
(dp1333
g18
I1
sg19
I0
sg20
I103
sg21
I0
sg22
I0
sg23
I69
sg24
I0
sbssg25
S'l\x81\xf4\xe4\xf0\xa1\xe9\x101\xd8\x90y\xed\xdb_\x81'
p1334
ssS'_home_mike_Documents_python_django-mike_lib_python2_7_site-packages_Django-1_4_3-py2_7_egg_django_middleware_common'
p1335
(dp1336
g56
(dp1337
g8
S'_home_mike_Documents_python_django-mike_lib_python2_7_site-packages_Django-1_4_3-py2_7_egg_django_middleware_common.html'
p1338
sg10
S'/home/mike/Documents/python/django-mike/lib/python2.7/site-packages/Django-1.4.3-py2.7.egg/django/middleware/common'
p1339
sg12
g13
(g14
g15
NtRp1340
(dp1341
g18
I1
sg19
I0
sg20
I73
sg21
I0
sg22
I0
sg23
I48
sg24
I0
sbssg62
S'\xbd\xe5\xda~`\xb0\xfe\xf9\xd6\xd1\xfe\xb86d7\xb5'
p1342
ssS'_home_mike_Documents_python_django-mike_lib_python2_7_site-packages_Django-1_4_3-py2_7_egg_django_utils_crypto'
p1343
(dp1344
g6
(dp1345
g8
S'_home_mike_Documents_python_django-mike_lib_python2_7_site-packages_Django-1_4_3-py2_7_egg_django_utils_crypto.html'
p1346
sg10
S'/home/mike/Documents/python/django-mike/lib/python2.7/site-packages/Django-1.4.3-py2.7.egg/django/utils/crypto'
p1347
sg12
g13
(g14
g15
NtRp1348
(dp1349
g18
I1
sg19
I0
sg20
I68
sg21
I0
sg22
I0
sg23
I46
sg24
I0
sbssg25
S'\xf8\x1e\xcb\x14]IJ\xefP5\xb0\xab\xd3\xd4v\x90'
p1350
ssS'_home_mike_Documents_python_django-mike_lib_python2_7_site-packages_Django-1_4_3-py2_7_egg_django_core_validators'
p1351
(dp1352
g6
(dp1353
g30
S'_home_mike_Documents_python_django-mike_lib_python2_7_site-packages_Django-1_4_3-py2_7_egg_django_core_validators.html'
p1354
sg32
S'/home/mike/Documents/python/django-mike/lib/python2.7/site-packages/Django-1.4.3-py2.7.egg/django/core/validators'
p1355
sg34
g13
(g14
g15
NtRp1356
(dp1357
g18
I1
sg19
I0
sg20
I157
sg21
I0
sg22
I0
sg23
I86
sg24
I0
sbssg25
S'\xf3\xf8\xd1\x02\x01\xf0\x8a\xe3D\x8a?hk\x87s\x83'
p1358
ssS'_home_mike_Documents_python_django-mike_lib_python2_7_site-packages_Django-1_4_3-py2_7_egg_django_core_urlresolvers'
p1359
(dp1360
g6
(dp1361
g8
S'_home_mike_Documents_python_django-mike_lib_python2_7_site-packages_Django-1_4_3-py2_7_egg_django_core_urlresolvers.html'
p1362
sg10
S'/home/mike/Documents/python/django-mike/lib/python2.7/site-packages/Django-1.4.3-py2.7.egg/django/core/urlresolvers'
p1363
sg12
g13
(g14
g15
NtRp1364
(dp1365
g18
I1
sg19
I0
sg20
I339
sg21
I0
sg22
I0
sg23
I99
sg24
I0
sbssg25
S'{;~vB\xbf\x04\xcc\xd8\xd4^\x0eL\x89\xe8\x1c'
p1366
ssS'_home_mike_Documents_python_django-mike_lib_python2_7_site-packages_Django-1_4_3-py2_7_egg_django_contrib_sessions___init__'
p1367
(dp1368
g6
(dp1369
g30
S'_home_mike_Documents_python_django-mike_lib_python2_7_site-packages_Django-1_4_3-py2_7_egg_django_contrib_sessions___init__.html'
p1370
sg32
S'/home/mike/Documents/python/django-mike/lib/python2.7/site-packages/Django-1.4.3-py2.7.egg/django/contrib/sessions/__init__'
p1371
sg34
g13
(g14
g15
NtRp1372
(dp1373
g18
I1
sg19
I0
sg20
I0
sg21
I0
sg22
I0
sg23
I0
sg24
I0
sbssg25
S'\xb0\xc8pN\xaf>\xa0\xbaz\x144\xe0A9\xb8?'
p1374
ssS'_home_mike_Documents_python_django-mike_lib_python2_7_site-packages_Django-1_4_3-py2_7_egg_django_contrib_admin_forms'
p1375
(dp1376
g6
(dp1377
g30
S'_home_mike_Documents_python_django-mike_lib_python2_7_site-packages_Django-1_4_3-py2_7_egg_django_contrib_admin_forms.html'
p1378
sg32
S'/home/mike/Documents/python/django-mike/lib/python2.7/site-packages/Django-1.4.3-py2.7.egg/django/contrib/admin/forms'
p1379
sg34
g13
(g14
g15
NtRp1380
(dp1381
g18
I1
sg19
I0
sg20
I27
sg21
I0
sg22
I0
sg23
I18
sg24
I0
sbssg25
S'\xde\xbf\x04\xd5\xeb\xcbdH\xcc\x8d\xbb\n\xcd\xd1\xa0\x98'
p1382
ssS'_home_mike_Documents_python_django-mike_lib_python2_7_site-packages_Django-1_4_3-py2_7_egg_django_forms_fields'
p1383
(dp1384
g6
(dp1385
g8
S'_home_mike_Documents_python_django-mike_lib_python2_7_site-packages_Django-1_4_3-py2_7_egg_django_forms_fields.html'
p1386
sg10
S'/home/mike/Documents/python/django-mike/lib/python2.7/site-packages/Django-1.4.3-py2.7.egg/django/forms/fields'
p1387
sg12
g13
(g14
g15
NtRp1388
(dp1389
g18
I1
sg19
I0
sg20
I585
sg21
I0
sg22
I0
sg23
I378
sg24
I0
sbssg25
S'\xb6\x9dI\xc02A\xd8\xcb\xe9\x98\xadR\xc6\xa9\x9d\xf2'
p1390
ssS'_home_mike_Documents_python_django-mike_lib_python2_7_site-packages_Django-1_4_3-py2_7_egg_django_core_cache_backends_locmem'
p1391
(dp1392
g6
(dp1393
g30
S'_home_mike_Documents_python_django-mike_lib_python2_7_site-packages_Django-1_4_3-py2_7_egg_django_core_cache_backends_locmem.html'
p1394
sg32
S'/home/mike/Documents/python/django-mike/lib/python2.7/site-packages/Django-1.4.3-py2.7.egg/django/core/cache/backends/locmem'
p1395
sg34
g13
(g14
g15
NtRp1396
(dp1397
g18
I1
sg19
I0
sg20
I120
sg21
I0
sg22
I0
sg23
I93
sg24
I0
sbssg25
S"*\x1f\x1f<\x8b\x1f\x18\xc9zxN\x18S\xa9'\x91"
p1398
ssS'_home_mike_Documents_python_django-mike_lib_python2_7_site-packages_Django-1_4_3-py2_7_egg_django_contrib_auth_context_processors'
p1399
(dp1400
g56
(dp1401
g8
S'_home_mike_Documents_python_django-mike_lib_python2_7_site-packages_Django-1_4_3-py2_7_egg_django_contrib_auth_context_processors.html'
p1402
sg10
S'/home/mike/Documents/python/django-mike/lib/python2.7/site-packages/Django-1.4.3-py2.7.egg/django/contrib/auth/context_processors'
p1403
sg12
g13
(g14
g15
NtRp1404
(dp1405
g18
I1
sg19
I0
sg20
I24
sg21
I0
sg22
I0
sg23
I13
sg24
I0
sbssg62
S'<gfR\x97\x93\x17X!q\xec\xa2Sr\xa1\xad'
p1406
ssS'_home_mike_Documents_python_django-mike_lib_python2_7_site-packages_Django-1_4_3-py2_7_egg_django_dispatch_saferef'
p1407
(dp1408
g6
(dp1409
g8
S'_home_mike_Documents_python_django-mike_lib_python2_7_site-packages_Django-1_4_3-py2_7_egg_django_dispatch_saferef.html'
p1410
sg10
S'/home/mike/Documents/python/django-mike/lib/python2.7/site-packages/Django-1.4.3-py2.7.egg/django/dispatch/saferef'
p1411
sg12
g13
(g14
g15
NtRp1412
(dp1413
g18
I1
sg19
I0
sg20
I80
sg21
I0
sg22
I0
sg23
I28
sg24
I0
sbssg25
S'|\x1aR\xee\xf8\xd6\xba\xfe\x01\x8d\x0c\xf2\xde\x0b\xad<'
p1414
ssS'_home_mike_Documents_python_django-mike_lib_python2_7_site-packages_Django-1_4_3-py2_7_egg_django_contrib_admin_options'
p1415
(dp1416
g6
(dp1417
g8
S'_home_mike_Documents_python_django-mike_lib_python2_7_site-packages_Django-1_4_3-py2_7_egg_django_contrib_admin_options.html'
p1418
sg10
S'/home/mike/Documents/python/django-mike/lib/python2.7/site-packages/Django-1.4.3-py2.7.egg/django/contrib/admin/options'
p1419
sg12
g13
(g14
g15
NtRp1420
(dp1421
g18
I1
sg19
I0
sg20
I735
sg21
I0
sg22
I0
sg23
I560
sg24
I0
sbssg25
S'\xbb&D\x90\x1f<\xba\x9b\xbc\xc0z.k\xd0R\xd5'
p1422
ssS'_home_mike_Documents_python_django-mike_lib_python2_7_site-packages_Django-1_4_3-py2_7_egg_django_db_models_fields___init__'
p1423
(dp1424
g6
(dp1425
g8
S'_home_mike_Documents_python_django-mike_lib_python2_7_site-packages_Django-1_4_3-py2_7_egg_django_db_models_fields___init__.html'
p1426
sg10
S'/home/mike/Documents/python/django-mike/lib/python2.7/site-packages/Django-1.4.3-py2.7.egg/django/db/models/fields/__init__'
p1427
sg12
g13
(g14
g15
NtRp1428
(dp1429
g18
I1
sg19
I0
sg20
I778
sg21
I0
sg22
I0
sg23
I384
sg24
I0
sbssg25
S'\xec\x83|\x91zU\xe7m*\xed\xc8\xb5\xdb\x1aoC'
p1430
ssS'_home_mike_Documents_python_django-mike_lib_python2_7_site-packages_Django-1_4_3-py2_7_egg_django_utils__os'
p1431
(dp1432
g6
(dp1433
g8
S'_home_mike_Documents_python_django-mike_lib_python2_7_site-packages_Django-1_4_3-py2_7_egg_django_utils__os.html'
p1434
sg10
S'/home/mike/Documents/python/django-mike/lib/python2.7/site-packages/Django-1.4.3-py2.7.egg/django/utils/_os'
p1435
sg12
g13
(g14
g15
NtRp1436
(dp1437
g18
I1
sg19
I0
sg20
I32
sg21
I0
sg22
I0
sg23
I10
sg24
I0
sbssg25
S'H\xad`\n\xe5\xb1\xa4\xf4`\x11x1~\xc4\x17\xb7'
p1438
ssS'_home_mike_Documents_python_django-mike_lib_python2_7_site-packages_Django-1_4_3-py2_7_egg_django_db_models_sql_datastructures'
p1439
(dp1440
g6
(dp1441
g30
S'_home_mike_Documents_python_django-mike_lib_python2_7_site-packages_Django-1_4_3-py2_7_egg_django_db_models_sql_datastructures.html'
p1442
sg32
S'/home/mike/Documents/python/django-mike/lib/python2.7/site-packages/Django-1.4.3-py2.7.egg/django/db/models/sql/datastructures'
p1443
sg34
g13
(g14
g15
NtRp1444
(dp1445
g18
I1
sg19
I0
sg20
I25
sg21
I0
sg22
I0
sg23
I11
sg24
I0
sbssg25
S"\xab\x99\\\xa2\x90\x03\x16\xdf\xd8p\x82'\xa1\xd3\x8ct"
p1446
ssS'_home_mike_Documents_python_django-mike_lib_python2_7_site-packages_Django-1_4_3-py2_7_egg_django_core_files_images'
p1447
(dp1448
g6
(dp1449
g30
S'_home_mike_Documents_python_django-mike_lib_python2_7_site-packages_Django-1_4_3-py2_7_egg_django_core_files_images.html'
p1450
sg32
S'/home/mike/Documents/python/django-mike/lib/python2.7/site-packages/Django-1.4.3-py2.7.egg/django/core/files/images'
p1451
sg34
g13
(g14
g15
NtRp1452
(dp1453
g18
I1
sg19
I0
sg20
I40
sg21
I0
sg22
I0
sg23
I32
sg24
I0
sbssg25
S'\xcf\x19\xca\xed\xd0\x9f\xdd\x00\xc0\xb9\xceq\xff\xa6JJ'
p1454
ssS'_home_mike_Documents_python_django-mike_lib_python2_7_site-packages_Django-1_4_3-py2_7_egg_django_conf_locale_en_formats'
p1455
(dp1456
g6
(dp1457
g30
S'_home_mike_Documents_python_django-mike_lib_python2_7_site-packages_Django-1_4_3-py2_7_egg_django_conf_locale_en_formats.html'
p1458
sg32
S'/home/mike/Documents/python/django-mike/lib/python2.7/site-packages/Django-1.4.3-py2.7.egg/django/conf/locale/en/formats'
p1459
sg34
g13
(g14
g15
NtRp1460
(dp1461
g18
I1
sg19
I0
sg20
I14
sg21
I0
sg22
I0
sg23
I0
sg24
I0
sbssg25
S"\x93\xc2\xcc\x9d\xd2\x99\xd1G=\xce'\xb0K\x93#R"
p1462
ssS'_home_mike_Documents_python_django-mike_lib_python2_7_site-packages_Django-1_4_3-py2_7_egg_django_core_files___init__'
p1463
(dp1464
g6
(dp1465
g30
S'_home_mike_Documents_python_django-mike_lib_python2_7_site-packages_Django-1_4_3-py2_7_egg_django_core_files___init__.html'
p1466
sg32
S'/home/mike/Documents/python/django-mike/lib/python2.7/site-packages/Django-1.4.3-py2.7.egg/django/core/files/__init__'
p1467
sg34
g13
(g14
g15
NtRp1468
(dp1469
g18
I1
sg19
I0
sg20
I1
sg21
I0
sg22
I0
sg23
I0
sg24
I0
sbssg25
S"\xa1\xbfiA'\x85B\x1e\xd8\xe0\x91\xe3\xf7\x86\x81\xb2"
p1470
ssS'_home_mike_Documents_python_django-mike_lib_python2_7_site-packages_Django-1_4_3-py2_7_egg_django_forms_forms'
p1471
(dp1472
g6
(dp1473
g8
S'_home_mike_Documents_python_django-mike_lib_python2_7_site-packages_Django-1_4_3-py2_7_egg_django_forms_forms.html'
p1474
sg10
S'/home/mike/Documents/python/django-mike/lib/python2.7/site-packages/Django-1.4.3-py2.7.egg/django/forms/forms'
p1475
sg12
g13
(g14
g15
NtRp1476
(dp1477
g18
I1
sg19
I0
sg20
I280
sg21
I0
sg22
I0
sg23
I195
sg24
I0
sbssg25
S'\xb1\xbb\xa5"\xda\xf0\x14F\xd1\x1d\x8c]\x03\xdc\xf6F'
p1478
ssS'_home_mike_Documents_python_django-mike_lib_python2_7_site-packages_Django-1_4_3-py2_7_egg_django_contrib_auth_signals'
p1479
(dp1480
g6
(dp1481
g30
S'_home_mike_Documents_python_django-mike_lib_python2_7_site-packages_Django-1_4_3-py2_7_egg_django_contrib_auth_signals.html'
p1482
sg32
S'/home/mike/Documents/python/django-mike/lib/python2.7/site-packages/Django-1.4.3-py2.7.egg/django/contrib/auth/signals'
p1483
sg34
g13
(g14
g15
NtRp1484
(dp1485
g18
I1
sg19
I0
sg20
I3
sg21
I0
sg22
I0
sg23
I0
sg24
I0
sbssg25
S'\x13\x17\x85\x98\x81\r`\x1b~4\x04;\x16\x9b%L'
p1486
ssS'_home_mike_Documents_python_django-mike_lib_python2_7_site-packages_Django-1_4_3-py2_7_egg_django_db_models_related'
p1487
(dp1488
g6
(dp1489
g30
S'_home_mike_Documents_python_django-mike_lib_python2_7_site-packages_Django-1_4_3-py2_7_egg_django_db_models_related.html'
p1490
sg32
S'/home/mike/Documents/python/django-mike/lib/python2.7/site-packages/Django-1.4.3-py2.7.egg/django/db/models/related'
p1491
sg34
g13
(g14
g15
NtRp1492
(dp1493
g18
I1
sg19
I0
sg20
I41
sg21
I0
sg22
I0
sg23
I17
sg24
I0
sbssg25
S'\x01\xed\xbb\xef\xa5\xbe\xb0\xfd\xe7\x006\xbd\xc1=\x9a)'
p1494
ssS'_home_mike_Documents_python_django-mike_lib_python2_7_site-packages_Django-1_4_3-py2_7_egg_django_db_models_sql_where'
p1495
(dp1496
g6
(dp1497
g30
S'_home_mike_Documents_python_django-mike_lib_python2_7_site-packages_Django-1_4_3-py2_7_egg_django_db_models_sql_where.html'
p1498
sg32
S'/home/mike/Documents/python/django-mike/lib/python2.7/site-packages/Django-1.4.3-py2.7.egg/django/db/models/sql/where'
p1499
sg34
g13
(g14
g15
NtRp1500
(dp1501
g18
I1
sg19
I0
sg20
I198
sg21
I0
sg22
I0
sg23
I85
sg24
I0
sbssg25
S"tM'\x9b\r\xb6\xaf!X\xb5Wc\x84-cc"
p1502
ssS'_home_mike_Documents_python_django-mike_lib_python2_7_site-packages_Django-1_4_3-py2_7_egg_django_template_loaders_filesystem'
p1503
(dp1504
g56
(dp1505
g8
S'_home_mike_Documents_python_django-mike_lib_python2_7_site-packages_Django-1_4_3-py2_7_egg_django_template_loaders_filesystem.html'
p1506
sg10
S'/home/mike/Documents/python/django-mike/lib/python2.7/site-packages/Django-1.4.3-py2.7.egg/django/template/loaders/filesystem'
p1507
sg12
g13
(g14
g15
NtRp1508
(dp1509
g18
I1
sg19
I0
sg20
I32
sg21
I0
sg22
I0
sg23
I3
sg24
I0
sbssg62
S'a\xa7L*\x08\x84\xd3\xfb\xe2#a\xfe]\xafv^'
p1510
ssS'_home_mike_Documents_python_django-mike_lib_python2_7_site-packages_Django-1_4_3-py2_7_egg_django_contrib_admin_actions'
p1511
(dp1512
g6
(dp1513
g30
S'_home_mike_Documents_python_django-mike_lib_python2_7_site-packages_Django-1_4_3-py2_7_egg_django_contrib_admin_actions.html'
p1514
sg32
S'/home/mike/Documents/python/django-mike/lib/python2.7/site-packages/Django-1.4.3-py2.7.egg/django/contrib/admin/actions'
p1515
sg34
g13
(g14
g15
NtRp1516
(dp1517
g18
I1
sg19
I0
sg20
I34
sg21
I0
sg22
I0
sg23
I25
sg24
I0
sbssg25
S'!\xc3\xbf\x11\xd1\xcc\x7fa\xf0\x1d\xaep\xafI\xf5\x0b'
p1518
ssS'_home_mike_Documents_python_django-mike_lib_python2_7_site-packages_Django-1_4_3-py2_7_egg_django_contrib_staticfiles_handlers'
p1519
(dp1520
g6
(dp1521
g30
S'_home_mike_Documents_python_django-mike_lib_python2_7_site-packages_Django-1_4_3-py2_7_egg_django_contrib_staticfiles_handlers.html'
p1522
sg32
S'/home/mike/Documents/python/django-mike/lib/python2.7/site-packages/Django-1.4.3-py2.7.egg/django/contrib/staticfiles/handlers'
p1523
sg34
g13
(g14
g15
NtRp1524
(dp1525
g18
I1
sg19
I0
sg20
I40
sg21
I0
sg22
I0
sg23
I25
sg24
I0
sbssg25
S'\xc9\xf1t\x83\xcf\x01k\x14\x7f1\xa8\xd7,\xaf\xb3}'
p1526
ssS'django_test_views'
p1527
(dp1528
g56
(dp1529
g8
S'django_test_views.html'
p1530
sg10
S'django_test/views'
p1531
sg12
g13
(g14
g15
NtRp1532
(dp1533
g18
I1
sg19
I0
sg20
I37
sg21
I0
sg22
I0
sg23
I25
sg24
I0
sbssg62
S'\xca\xf9\x01\xa0\xde?1\x9c\x9c\xbda\xb96\xe5!b'
p1534
ssS'_home_mike_Documents_python_django-mike_lib_python2_7_site-packages_Django-1_4_3-py2_7_egg_django_dispatch___init__'
p1535
(dp1536
g6
(dp1537
g30
S'_home_mike_Documents_python_django-mike_lib_python2_7_site-packages_Django-1_4_3-py2_7_egg_django_dispatch___init__.html'
p1538
sg32
S'/home/mike/Documents/python/django-mike/lib/python2.7/site-packages/Django-1.4.3-py2.7.egg/django/dispatch/__init__'
p1539
sg34
g13
(g14
g15
NtRp1540
(dp1541
g18
I1
sg19
I0
sg20
I1
sg21
I0
sg22
I0
sg23
I0
sg24
I0
sbssg25
S'\xe9$\xa4\xf3k\xc7$G\xbe^\x9e5~A\x94\xd1'
p1542
ssS'_home_mike_Documents_python_django-mike_lib_python2_7_site-packages_Django-1_4_3-py2_7_egg_django_forms_models'
p1543
(dp1544
g6
(dp1545
g30
S'_home_mike_Documents_python_django-mike_lib_python2_7_site-packages_Django-1_4_3-py2_7_egg_django_forms_models.html'
p1546
sg32
S'/home/mike/Documents/python/django-mike/lib/python2.7/site-packages/Django-1.4.3-py2.7.egg/django/forms/models'
p1547
sg34
g13
(g14
g15
NtRp1548
(dp1549
g18
I1
sg19
I0
sg20
I584
sg21
I0
sg22
I0
sg23
I432
sg24
I0
sbssg25
S'Y\x10\x19\xdb\xc87\xc9\nq\x81\xd2i\xaa\x90S\x1e'
p1550
ssS'_home_mike_Documents_python_django-mike_lib_python2_7_site-packages_Django-1_4_3-py2_7_egg_django_contrib_staticfiles_templatetags_staticfiles'
p1551
(dp1552
g6
(dp1553
g30
S'_home_mike_Documents_python_django-mike_lib_python2_7_site-packages_Django-1_4_3-py2_7_egg_django_contrib_staticfiles_templatetags_staticfiles.html'
p1554
sg32
S'/home/mike/Documents/python/django-mike/lib/python2.7/site-packages/Django-1.4.3-py2.7.egg/django/contrib/staticfiles/templatetags/staticfiles'
p1555
sg34
g13
(g14
g15
NtRp1556
(dp1557
g18
I1
sg19
I0
sg20
I5
sg21
I0
sg22
I0
sg23
I1
sg24
I0
sbssg25
S'\x83Er\x85\xa40\xc8\x00]b\x13\xde%\xb7\xc7\xc2'
p1558
ssS'_home_mike_Documents_python_django-mike_lib_python2_7_site-packages_Django-1_4_3-py2_7_egg_django_contrib_messages_models'
p1559
(dp1560
g6
(dp1561
g30
S'_home_mike_Documents_python_django-mike_lib_python2_7_site-packages_Django-1_4_3-py2_7_egg_django_contrib_messages_models.html'
p1562
sg32
S'/home/mike/Documents/python/django-mike/lib/python2.7/site-packages/Django-1.4.3-py2.7.egg/django/contrib/messages/models'
p1563
sg34
g13
(g14
g15
NtRp1564
(dp1565
g18
I1
sg19
I0
sg20
I0
sg21
I0
sg22
I0
sg23
I0
sg24
I0
sbssg25
S'}\xf8)\x98N\x1e\xef\xd8Ky\x9f\x03d\x14L\xac'
p1566
ssS'_home_mike_Documents_python_django-mike_lib_python2_7_site-packages_Django-1_4_3-py2_7_egg_django_utils_formats'
p1567
(dp1568
g6
(dp1569
g8
S'_home_mike_Documents_python_django-mike_lib_python2_7_site-packages_Django-1_4_3-py2_7_egg_django_utils_formats.html'
p1570
sg10
S'/home/mike/Documents/python/django-mike/lib/python2.7/site-packages/Django-1.4.3-py2.7.egg/django/utils/formats'
p1571
sg12
g13
(g14
g15
NtRp1572
(dp1573
g18
I1
sg19
I0
sg20
I108
sg21
I0
sg22
I0
sg23
I46
sg24
I0
sbssg25
S'\xe9\xdc"\x11\x02\xf0#\x06\xcbml\xce\xcc\xc5\xad~'
p1574
ssS'_home_mike_Documents_python_django-mike_lib_python2_7_site-packages_tastypie_resources'
p1575
(dp1576
g56
(dp1577
g8
S'_home_mike_Documents_python_django-mike_lib_python2_7_site-packages_tastypie_resources.html'
p1578
sg10
S'/home/mike/Documents/python/django-mike/lib/python2.7/site-packages/tastypie/resources'
p1579
sg12
g13
(g14
g15
NtRp1580
(dp1581
g18
I1
sg19
I0
sg20
I1122
sg21
I0
sg22
I0
sg23
I822
sg24
I0
sbssg62
S'\\\x02\xe0\x85fa\xce\x99\x98\xe7\xd33\xdd\x88\xc4\\'
p1582
ssS'_home_mike_Documents_python_django-mike_lib_python2_7_site-packages_Django-1_4_3-py2_7_egg_django_utils_itercompat'
p1583
(dp1584
g6
(dp1585
g30
S'_home_mike_Documents_python_django-mike_lib_python2_7_site-packages_Django-1_4_3-py2_7_egg_django_utils_itercompat.html'
p1586
sg32
S'/home/mike/Documents/python/django-mike/lib/python2.7/site-packages/Django-1.4.3-py2.7.egg/django/utils/itercompat'
p1587
sg34
g13
(g14
g15
NtRp1588
(dp1589
g18
I1
sg19
I0
sg20
I24
sg21
I0
sg22
I0
sg23
I15
sg24
I0
sbssg25
S'OXMhC\xbe8\xb9E{b\x17w\xbf\xa2~'
p1590
ssS'_home_mike_Documents_python_django-mike_lib_python2_7_site-packages_Django-1_4_3-py2_7_egg_django_db_models_loading'
p1591
(dp1592
g6
(dp1593
g30
S'_home_mike_Documents_python_django-mike_lib_python2_7_site-packages_Django-1_4_3-py2_7_egg_django_db_models_loading.html'
p1594
sg32
S'/home/mike/Documents/python/django-mike/lib/python2.7/site-packages/Django-1.4.3-py2.7.egg/django/db/models/loading'
p1595
sg34
g13
(g14
g15
NtRp1596
(dp1597
g18
I1
sg19
I0
sg20
I119
sg21
I0
sg22
I0
sg23
I21
sg24
I0
sbssg25
S"\xf9\xacF\xab\x13j\xfe'|\xc6\x90\xea\x97]q\xb3"
p1598
ssS'article_urls'
p1599
(dp1600
g56
(dp1601
g8
S'article_urls.html'
p1602
sg10
S'article/urls'
p1603
sg12
g13
(g14
g15
NtRp1604
(dp1605
g18
I1
sg19
I0
sg20
I12
sg21
I0
sg22
I0
sg23
I0
sg24
I0
sbssg62
S'\x88\x13\x02\x91\xb2:d\x11\xcd\xf4\x19\xca\xe9\x98\x15\xa1'
p1606
ssS'_home_mike_Documents_python_django-mike_lib_python2_7_site-packages_Django-1_4_3-py2_7_egg_django_db_backends_sqlite3_introspection'
p1607
(dp1608
g6
(dp1609
g30
S'_home_mike_Documents_python_django-mike_lib_python2_7_site-packages_Django-1_4_3-py2_7_egg_django_db_backends_sqlite3_introspection.html'
p1610
sg32
S'/home/mike/Documents/python/django-mike/lib/python2.7/site-packages/Django-1.4.3-py2.7.egg/django/db/backends/sqlite3/introspection'
p1611
sg34
g13
(g14
g15
NtRp1612
(dp1613
g18
I1
sg19
I0
sg20
I90
sg21
I0
sg22
I0
sg23
I74
sg24
I0
sbssg25
S'\x16N\x81\xd5M{a&[\xa3\x9bPs\xe28\xbc'
p1614
ssS'_home_mike_Documents_python_django-mike_lib_python2_7_site-packages_Django-1_4_3-py2_7_egg_django_contrib_staticfiles_management___init__'
p1615
(dp1616
g6
(dp1617
g30
S'_home_mike_Documents_python_django-mike_lib_python2_7_site-packages_Django-1_4_3-py2_7_egg_django_contrib_staticfiles_management___init__.html'
p1618
sg32
S'/home/mike/Documents/python/django-mike/lib/python2.7/site-packages/Django-1.4.3-py2.7.egg/django/contrib/staticfiles/management/__init__'
p1619
sg34
g13
(g14
g15
NtRp1620
(dp1621
g18
I1
sg19
I0
sg20
I0
sg21
I0
sg22
I0
sg23
I0
sg24
I0
sbssg25
S'\xb0\xc8pN\xaf>\xa0\xbaz\x144\xe0A9\xb8?'
p1622
ssS'_home_mike_Documents_python_django-mike_lib_python2_7_site-packages_Django-1_4_3-py2_7_egg_django_utils_datastructures'
p1623
(dp1624
g6
(dp1625
g8
S'_home_mike_Documents_python_django-mike_lib_python2_7_site-packages_Django-1_4_3-py2_7_egg_django_utils_datastructures.html'
p1626
sg10
S'/home/mike/Documents/python/django-mike/lib/python2.7/site-packages/Django-1.4.3-py2.7.egg/django/utils/datastructures'
p1627
sg12
g13
(g14
g15
NtRp1628
(dp1629
g18
I1
sg19
I0
sg20
I292
sg21
I0
sg22
I0
sg23
I149
sg24
I0
sbssg25
S'\xb1suRY\xb1\x04\xde\xd9s\x0c|x\x8e\xc9\xe4'
p1630
ssS'_home_mike_Documents_python_django-mike_lib_python2_7_site-packages_Django-1_4_3-py2_7_egg_django_core_management_color'
p1631
(dp1632
g6
(dp1633
g30
S'_home_mike_Documents_python_django-mike_lib_python2_7_site-packages_Django-1_4_3-py2_7_egg_django_core_management_color.html'
p1634
sg32
S'/home/mike/Documents/python/django-mike/lib/python2.7/site-packages/Django-1.4.3-py2.7.egg/django/core/management/color'
p1635
sg34
g13
(g14
g15
NtRp1636
(dp1637
g18
I1
sg19
I0
sg20
I28
sg21
I0
sg22
I0
sg23
I3
sg24
I0
sbssg25
S'\x1f\x18m\xdf\x9b&\x90\xbe\xf5\x15C\x10\x8e\x16\xcd\xc4'
p1638
ssS'_home_mike_Documents_python_django-mike_lib_python2_7_site-packages_Django-1_4_3-py2_7_egg_django_db_models_sql_expressions'
p1639
(dp1640
g6
(dp1641
g30
S'_home_mike_Documents_python_django-mike_lib_python2_7_site-packages_Django-1_4_3-py2_7_egg_django_db_models_sql_expressions.html'
p1642
sg32
S'/home/mike/Documents/python/django-mike/lib/python2.7/site-packages/Django-1.4.3-py2.7.egg/django/db/models/sql/expressions'
p1643
sg34
g13
(g14
g15
NtRp1644
(dp1645
g18
I1
sg19
I0
sg20
I61
sg21
I0
sg22
I0
sg23
I48
sg24
I0
sbssg25
S'g\x06[\x98\xcbA\xf39\xba=F\xdf\xd4\x8dJ\x9f'
p1646
ssS'_home_mike_Documents_python_django-mike_lib_python2_7_site-packages_Django-1_4_3-py2_7_egg_django_http_multipartparser'
p1647
(dp1648
g6
(dp1649
g30
S'_home_mike_Documents_python_django-mike_lib_python2_7_site-packages_Django-1_4_3-py2_7_egg_django_http_multipartparser.html'
p1650
sg32
S'/home/mike/Documents/python/django-mike/lib/python2.7/site-packages/Django-1.4.3-py2.7.egg/django/http/multipartparser'
p1651
sg34
g13
(g14
g15
NtRp1652
(dp1653
g18
I1
sg19
I0
sg20
I337
sg21
I0
sg22
I0
sg23
I288
sg24
I0
sbssg25
S'\xd2\xb9 \x03\xe5*`\xbd*\x88\xd9I\x92\xb4~\xbb'
p1654
ssS'_home_mike_Documents_python_django-mike_lib_python2_7_site-packages_Django-1_4_3-py2_7_egg_django_contrib_contenttypes_management'
p1655
(dp1656
g6
(dp1657
g30
S'_home_mike_Documents_python_django-mike_lib_python2_7_site-packages_Django-1_4_3-py2_7_egg_django_contrib_contenttypes_management.html'
p1658
sg32
S'/home/mike/Documents/python/django-mike/lib/python2.7/site-packages/Django-1.4.3-py2.7.egg/django/contrib/contenttypes/management'
p1659
sg34
g13
(g14
g15
NtRp1660
(dp1661
g18
I1
sg19
I0
sg20
I34
sg21
I0
sg22
I0
sg23
I16
sg24
I0
sbssg25
S'\xd2\xa7CS\xcd\x03C\xa7\x93\x97MR0>\x84e'
p1662
ssS'_home_mike_Documents_python_django-mike_lib_python2_7_site-packages_Django-1_4_3-py2_7_egg_django_template_loaders_app_directories'
p1663
(dp1664
g56
(dp1665
g8
S'_home_mike_Documents_python_django-mike_lib_python2_7_site-packages_Django-1_4_3-py2_7_egg_django_template_loaders_app_directories.html'
p1666
sg10
S'/home/mike/Documents/python/django-mike/lib/python2.7/site-packages/Django-1.4.3-py2.7.egg/django/template/loaders/app_directories'
p1667
sg12
g13
(g14
g15
NtRp1668
(dp1669
g18
I1
sg19
I0
sg20
I42
sg21
I0
sg22
I0
sg23
I5
sg24
I0
sbssg62
S'q\x89[\xb6\x9fq\xb4\xbe\xe3A\x94\x19\xec\xef"\x9e'
p1670
ssS'_home_mike_Documents_python_django-mike_lib_python2_7_site-packages_Django-1_4_3-py2_7_egg_django_contrib_staticfiles_storage'
p1671
(dp1672
g6
(dp1673
g30
S'_home_mike_Documents_python_django-mike_lib_python2_7_site-packages_Django-1_4_3-py2_7_egg_django_contrib_staticfiles_storage.html'
p1674
sg32
S'/home/mike/Documents/python/django-mike/lib/python2.7/site-packages/Django-1.4.3-py2.7.egg/django/contrib/staticfiles/storage'
p1675
sg34
g13
(g14
g15
NtRp1676
(dp1677
g18
I1
sg19
I0
sg20
I160
sg21
I0
sg22
I0
sg23
I123
sg24
I0
sbssg25
S'\xaa\r\x86\xab~\xed\x19m\xcd\x7f\xc7\xc9\xd2up\x99'
p1678
ssS'_home_mike_Documents_python_django-mike_lib_python2_7_site-packages_Django-1_4_3-py2_7_egg_django_conf_global_settings'
p1679
(dp1680
g6
(dp1681
g30
S'_home_mike_Documents_python_django-mike_lib_python2_7_site-packages_Django-1_4_3-py2_7_egg_django_conf_global_settings.html'
p1682
sg32
S'/home/mike/Documents/python/django-mike/lib/python2.7/site-packages/Django-1.4.3-py2.7.egg/django/conf/global_settings'
p1683
sg34
g13
(g14
g15
NtRp1684
(dp1685
g18
I1
sg19
I0
sg20
I118
sg21
I0
sg22
I0
sg23
I0
sg24
I0
sbssg25
S'\xba\x06~\xde\x10?\xd3q\xeb#i&\x19H\xe2l'
p1686
ssS'_home_mike_Documents_python_django-mike_lib_python2_7_site-packages_Django-1_4_3-py2_7_egg_django_test_html'
p1687
(dp1688
g6
(dp1689
g30
S'_home_mike_Documents_python_django-mike_lib_python2_7_site-packages_Django-1_4_3-py2_7_egg_django_test_html.html'
p1690
sg32
S'/home/mike/Documents/python/django-mike/lib/python2.7/site-packages/Django-1.4.3-py2.7.egg/django/test/html'
p1691
sg34
g13
(g14
g15
NtRp1692
(dp1693
g18
I1
sg19
I0
sg20
I160
sg21
I0
sg22
I0
sg23
I126
sg24
I0
sbssg25
S'\x94\x99a\xaf\xa6\x83\xd3\xab\xe4\xc2h`$\xab\xde\xbb'
p1694
ssS'_home_mike_Documents_python_django-mike_lib_python2_7_site-packages_Django-1_4_3-py2_7_egg_django_contrib_messages_middleware'
p1695
(dp1696
g56
(dp1697
g8
S'_home_mike_Documents_python_django-mike_lib_python2_7_site-packages_Django-1_4_3-py2_7_egg_django_contrib_messages_middleware.html'
p1698
sg10
S'/home/mike/Documents/python/django-mike/lib/python2.7/site-packages/Django-1.4.3-py2.7.egg/django/contrib/messages/middleware'
p1699
sg12
g13
(g14
g15
NtRp1700
(dp1701
g18
I1
sg19
I0
sg20
I11
sg21
I0
sg22
I0
sg23
I1
sg24
I0
sbssg62
S'Ck\x91\x91\x8c\xffq\xa6?\x04\x83\xb5Q\x8eJ\xca'
p1702
ssS'_home_mike_Documents_python_django-mike_lib_python2_7_site-packages_Django-1_4_3-py2_7_egg_django_views_decorators___init__'
p1703
(dp1704
g6
(dp1705
g30
S'_home_mike_Documents_python_django-mike_lib_python2_7_site-packages_Django-1_4_3-py2_7_egg_django_views_decorators___init__.html'
p1706
sg32
S'/home/mike/Documents/python/django-mike/lib/python2.7/site-packages/Django-1.4.3-py2.7.egg/django/views/decorators/__init__'
p1707
sg34
g13
(g14
g15
NtRp1708
(dp1709
g18
I1
sg19
I0
sg20
I0
sg21
I0
sg22
I0
sg23
I0
sg24
I0
sbssg25
S'\xb0\xc8pN\xaf>\xa0\xbaz\x144\xe0A9\xb8?'
p1710
ssS'_home_mike_Documents_python_django-mike_lib_python2_7_site-packages_Django-1_4_3-py2_7_egg_django_core_management_commands_test'
p1711
(dp1712
g6
(dp1713
g30
S'_home_mike_Documents_python_django-mike_lib_python2_7_site-packages_Django-1_4_3-py2_7_egg_django_core_management_commands_test.html'
p1714
sg32
S'/home/mike/Documents/python/django-mike/lib/python2.7/site-packages/Django-1.4.3-py2.7.egg/django/core/management/commands/test'
p1715
sg34
g13
(g14
g15
NtRp1716
(dp1717
g18
I1
sg19
I0
sg20
I37
sg21
I0
sg22
I0
sg23
I5
sg24
I0
sbssg25
S'\xbf\x7f\xf75F!\xdb\xb2\xb5\xf1V\xa5a\xd1\x86\x8f'
p1718
ssS'_home_mike_Documents_python_django-mike_lib_python2_7_site-packages_Django-1_4_3-py2_7_egg_django_utils_unittest___init__'
p1719
(dp1720
g6
(dp1721
g30
S'_home_mike_Documents_python_django-mike_lib_python2_7_site-packages_Django-1_4_3-py2_7_egg_django_utils_unittest___init__.html'
p1722
sg32
S'/home/mike/Documents/python/django-mike/lib/python2.7/site-packages/Django-1.4.3-py2.7.egg/django/utils/unittest/__init__'
p1723
sg34
g13
(g14
g15
NtRp1724
(dp1725
g18
I1
sg19
I0
sg20
I23
sg21
I0
sg22
I0
sg23
I17
sg24
I0
sbssg25
S'\xccP\x9c\xf4\x9b(\x7f#1\xb9\xe3X7\xb4\xe6B'
p1726
ssS'_home_mike_Documents_python_django-mike_lib_python2_7_site-packages_Django-1_4_3-py2_7_egg_django_utils_dateparse'
p1727
(dp1728
g6
(dp1729
g8
S'_home_mike_Documents_python_django-mike_lib_python2_7_site-packages_Django-1_4_3-py2_7_egg_django_utils_dateparse.html'
p1730
sg10
S'/home/mike/Documents/python/django-mike/lib/python2.7/site-packages/Django-1.4.3-py2.7.egg/django/utils/dateparse'
p1731
sg12
g13
(g14
g15
NtRp1732
(dp1733
g18
I1
sg19
I0
sg20
I37
sg21
I0
sg22
I0
sg23
I16
sg24
I0
sbssg25
S'p\xbf\x11YGyz\xf7hE\xc8\xde4I\x1cr'
p1734
ssS'_home_mike_Documents_python_django-mike_lib_python2_7_site-packages_Django-1_4_3-py2_7_egg_django_views___init__'
p1735
(dp1736
g6
(dp1737
g30
S'_home_mike_Documents_python_django-mike_lib_python2_7_site-packages_Django-1_4_3-py2_7_egg_django_views___init__.html'
p1738
sg32
S'/home/mike/Documents/python/django-mike/lib/python2.7/site-packages/Django-1.4.3-py2.7.egg/django/views/__init__'
p1739
sg34
g13
(g14
g15
NtRp1740
(dp1741
g18
I1
sg19
I0
sg20
I0
sg21
I0
sg22
I0
sg23
I0
sg24
I0
sbssg25
S'\xb0\xc8pN\xaf>\xa0\xbaz\x144\xe0A9\xb8?'
p1742
ssS'_home_mike_Documents_python_django-mike_lib_python2_7_site-packages_Django-1_4_3-py2_7_egg_django_utils_html'
p1743
(dp1744
g6
(dp1745
g8
S'_home_mike_Documents_python_django-mike_lib_python2_7_site-packages_Django-1_4_3-py2_7_egg_django_utils_html.html'
p1746
sg10
S'/home/mike/Documents/python/django-mike/lib/python2.7/site-packages/Django-1.4.3-py2.7.egg/django/utils/html'
p1747
sg12
g13
(g14
g15
NtRp1748
(dp1749
g18
I1
sg19
I0
sg20
I133
sg21
I0
sg22
I0
sg23
I88
sg24
I0
sbssg25
S'\xa3|\x95\xc2\xe58\xddA\xdcptz=\xa7\x04\x97'
p1750
ssS'_home_mike_Documents_python_django-mike_lib_python2_7_site-packages_Django-1_4_3-py2_7_egg_django_utils_ipv6'
p1751
(dp1752
g6
(dp1753
g30
S'_home_mike_Documents_python_django-mike_lib_python2_7_site-packages_Django-1_4_3-py2_7_egg_django_utils_ipv6.html'
p1754
sg32
S'/home/mike/Documents/python/django-mike/lib/python2.7/site-packages/Django-1.4.3-py2.7.egg/django/utils/ipv6'
p1755
sg34
g13
(g14
g15
NtRp1756
(dp1757
g18
I1
sg19
I0
sg20
I107
sg21
I0
sg22
I0
sg23
I100
sg24
I0
sbssg25
S'J^YM\xe4\x01\xa3\xee\xad\x9chj"c\x15~'
p1758
ssS'_home_mike_Documents_python_django-mike_lib_python2_7_site-packages_Django-1_4_3-py2_7_egg_django_test_simple'
p1759
(dp1760
g6
(dp1761
g30
S'_home_mike_Documents_python_django-mike_lib_python2_7_site-packages_Django-1_4_3-py2_7_egg_django_test_simple.html'
p1762
sg32
S'/home/mike/Documents/python/django-mike/lib/python2.7/site-packages/Django-1.4.3-py2.7.egg/django/test/simple'
p1763
sg34
g13
(g14
g15
NtRp1764
(dp1765
g18
I1
sg19
I0
sg20
I198
sg21
I0
sg22
I0
sg23
I71
sg24
I0
sbssg25
S'\xb8\xc0:\xcfY\x94X\xd58\xdfE\xa8\x98\x1f\x86\xee'
p1766
ssS'_home_mike_Documents_python_django-mike_lib_python2_7_site-packages_Django-1_4_3-py2_7_egg_django_core_files_locks'
p1767
(dp1768
g6
(dp1769
g30
S'_home_mike_Documents_python_django-mike_lib_python2_7_site-packages_Django-1_4_3-py2_7_egg_django_core_files_locks.html'
p1770
sg32
S'/home/mike/Documents/python/django-mike/lib/python2.7/site-packages/Django-1.4.3-py2.7.egg/django/core/files/locks'
p1771
sg34
g13
(g14
g15
NtRp1772
(dp1773
g18
I1
sg19
I0
sg20
I40
sg21
I0
sg22
I0
sg23
I23
sg24
I0
sbssg25
S'\x18\xad\x19x\x91p\n\x1a\x14\xf5\x00\xd2\xaf\xb8\xfa\xc5'
p1774
ssS'_home_mike_Documents_python_django-mike_lib_python2_7_site-packages_Django-1_4_3-py2_7_egg_django_core_serializers_json'
p1775
(dp1776
g6
(dp1777
g30
S'_home_mike_Documents_python_django-mike_lib_python2_7_site-packages_Django-1_4_3-py2_7_egg_django_core_serializers_json.html'
p1778
sg32
S'/home/mike/Documents/python/django-mike/lib/python2.7/site-packages/Django-1.4.3-py2.7.egg/django/core/serializers/json'
p1779
sg34
g13
(g14
g15
NtRp1780
(dp1781
g18
I1
sg19
I0
sg20
I50
sg21
I0
sg22
I0
sg23
I34
sg24
I0
sbssg25
S'.\x1c\xce;4\xae?\x05\xb3A|\xa2g\xb2B\x17'
p1782
ssS'_home_mike_Documents_python_django-mike_lib_python2_7_site-packages_dateutil_tzwin'
p1783
(dp1784
g56
(dp1785
g8
S'_home_mike_Documents_python_django-mike_lib_python2_7_site-packages_dateutil_tzwin.html'
p1786
sg10
S'/home/mike/Documents/python/django-mike/lib/python2.7/site-packages/dateutil/tzwin'
p1787
sg12
g13
(g14
g15
NtRp1788
(dp1789
g18
I1
sg19
I0
sg20
I105
sg21
I0
sg22
I0
sg23
I102
sg24
I0
sbssg62
S':\xd0\xe7\xe5\xd6\xb0\xf4j:\x19]H^\xd9u\xa2'
p1790
ssS'_home_mike_Documents_python_django-mike_lib_python2_7_site-packages_Django-1_4_3-py2_7_egg_django_contrib_sessions_middleware'
p1791
(dp1792
g56
(dp1793
g8
S'_home_mike_Documents_python_django-mike_lib_python2_7_site-packages_Django-1_4_3-py2_7_egg_django_contrib_sessions_middleware.html'
p1794
sg10
S'/home/mike/Documents/python/django-mike/lib/python2.7/site-packages/Django-1.4.3-py2.7.egg/django/contrib/sessions/middleware'
p1795
sg12
g13
(g14
g15
NtRp1796
(dp1797
g18
I1
sg19
I0
sg20
I28
sg21
I0
sg22
I0
sg23
I10
sg24
I0
sbssg62
S'\xf5\x03\x81\x0f1$\xb8\x9fK\xed\xd1\xce>\xf0\xcf,'
p1798
ssS'_home_mike_Documents_python_django-mike_lib_python2_7_site-packages_Django-1_4_3-py2_7_egg_django_core_exceptions'
p1799
(dp1800
g6
(dp1801
g30
S'_home_mike_Documents_python_django-mike_lib_python2_7_site-packages_Django-1_4_3-py2_7_egg_django_core_exceptions.html'
p1802
sg32
S'/home/mike/Documents/python/django-mike/lib/python2.7/site-packages/Django-1.4.3-py2.7.egg/django/core/exceptions'
p1803
sg34
g13
(g14
g15
NtRp1804
(dp1805
g18
I1
sg19
I0
sg20
I48
sg21
I0
sg22
I0
sg23
I24
sg24
I0
sbssg25
S'a\xe3\xad\nKH\xdek\xda\xd5\x03\x9fP\x15\xc6\xc6'
p1806
ssS'_home_mike_Documents_python_django-mike_lib_python2_7_site-packages_Django-1_4_3-py2_7_egg_django_db_backends_sqlite3_base'
p1807
(dp1808
g6
(dp1809
g8
S'_home_mike_Documents_python_django-mike_lib_python2_7_site-packages_Django-1_4_3-py2_7_egg_django_db_backends_sqlite3_base.html'
p1810
sg10
S'/home/mike/Documents/python/django-mike/lib/python2.7/site-packages/Django-1.4.3-py2.7.egg/django/db/backends/sqlite3/base'
p1811
sg12
g13
(g14
g15
NtRp1812
(dp1813
g18
I1
sg19
I0
sg20
I230
sg21
I0
sg22
I0
sg23
I92
sg24
I0
sbssg25
S'p\x00\xcf\x0e2=u\x8c\x04\xbe\x14\x89f\xb0{\xfb'
p1814
ssS'_home_mike_Documents_python_django-mike_lib_python2_7_site-packages_Django-1_4_3-py2_7_egg_django_contrib_messages_api'
p1815
(dp1816
g6
(dp1817
g30
S'_home_mike_Documents_python_django-mike_lib_python2_7_site-packages_Django-1_4_3-py2_7_egg_django_contrib_messages_api.html'
p1818
sg32
S'/home/mike/Documents/python/django-mike/lib/python2.7/site-packages/Django-1.4.3-py2.7.egg/django/contrib/messages/api'
p1819
sg34
g13
(g14
g15
NtRp1820
(dp1821
g18
I1
sg19
I0
sg20
I34
sg21
I0
sg22
I0
sg23
I20
sg24
I0
sbssg25
S'i\xb5\x8fk2\x89\xf2JF0\xfa\xd1z\x05\xaf\xe5'
p1822
ssS'_home_mike_Documents_python_django-mike_lib_python2_7_site-packages_Django-1_4_3-py2_7_egg_django_test_utils'
p1823
(dp1824
g6
(dp1825
g8
S'_home_mike_Documents_python_django-mike_lib_python2_7_site-packages_Django-1_4_3-py2_7_egg_django_test_utils.html'
p1826
sg10
S'/home/mike/Documents/python/django-mike/lib/python2.7/site-packages/Django-1.4.3-py2.7.egg/django/test/utils'
p1827
sg12
g13
(g14
g15
NtRp1828
(dp1829
g18
I1
sg19
I0
sg20
I121
sg21
I0
sg22
I0
sg23
I67
sg24
I0
sbssg25
S'V\xe3\xaf\x94D\xb4\x18\xddT\xc3\x1c\x96\xb5/u\x8c'
p1830
ssS'_home_mike_Documents_python_django-mike_lib_python2_7_site-packages_Django-1_4_3-py2_7_egg_django_utils_module_loading'
p1831
(dp1832
g6
(dp1833
g8
S'_home_mike_Documents_python_django-mike_lib_python2_7_site-packages_Django-1_4_3-py2_7_egg_django_utils_module_loading.html'
p1834
sg10
S'/home/mike/Documents/python/django-mike/lib/python2.7/site-packages/Django-1.4.3-py2.7.egg/django/utils/module_loading'
p1835
sg12
g13
(g14
g15
NtRp1836
(dp1837
g18
I1
sg19
I0
sg20
I48
sg21
I0
sg22
I0
sg23
I27
sg24
I0
sbssg25
S'Z\xcas"\xa3|\x97\xd4\xe0a0\x84\xb1\xbc\x01\xe8'
p1838
ssS'_home_mike_Documents_python_django-mike_lib_python2_7_site-packages_Django-1_4_3-py2_7_egg_django_db_models_sql_compiler'
p1839
(dp1840
g6
(dp1841
g8
S'_home_mike_Documents_python_django-mike_lib_python2_7_site-packages_Django-1_4_3-py2_7_egg_django_db_models_sql_compiler.html'
p1842
sg10
S'/home/mike/Documents/python/django-mike/lib/python2.7/site-packages/Django-1.4.3-py2.7.egg/django/db/models/sql/compiler'
p1843
sg12
g13
(g14
g15
NtRp1844
(dp1845
g18
I1
sg19
I0
sg20
I653
sg21
I0
sg22
I0
sg23
I373
sg24
I0
sbssg25
S'\x12\xb7\xda\x93y_z\xa9K\xbblI1\x99|<'
p1846
ssS'_home_mike_Documents_python_django-mike_lib_python2_7_site-packages_Django-1_4_3-py2_7_egg_django_core_context_processors'
p1847
(dp1848
g56
(dp1849
g8
S'_home_mike_Documents_python_django-mike_lib_python2_7_site-packages_Django-1_4_3-py2_7_egg_django_core_context_processors.html'
p1850
sg10
S'/home/mike/Documents/python/django-mike/lib/python2.7/site-packages/Django-1.4.3-py2.7.egg/django/core/context_processors'
p1851
sg12
g13
(g14
g15
NtRp1852
(dp1853
g18
I1
sg19
I0
sg20
I46
sg21
I0
sg22
I0
sg23
I24
sg24
I0
sbssg62
S'\xd7\xd7HT-Sg\x8bk\x85\xc8\xae*\x8a\xaf\xb5'
p1854
ssS'_home_mike_Documents_python_django-mike_lib_python2_7_site-packages_Django-1_4_3-py2_7_egg_django_contrib_staticfiles_views'
p1855
(dp1856
g6
(dp1857
g30
S'_home_mike_Documents_python_django-mike_lib_python2_7_site-packages_Django-1_4_3-py2_7_egg_django_contrib_staticfiles_views.html'
p1858
sg32
S'/home/mike/Documents/python/django-mike/lib/python2.7/site-packages/Django-1.4.3-py2.7.egg/django/contrib/staticfiles/views'
p1859
sg34
g13
(g14
g15
NtRp1860
(dp1861
g18
I1
sg19
I0
sg20
I19
sg21
I0
sg22
I0
sg23
I10
sg24
I0
sbssg25
S'Vs\xc8u\t8L5\x1d\x00\x8b\x0c&\xbd  '
p1862
ssS'django_test_settings'
p1863
(dp1864
g6
(dp1865
g30
S'django_test_settings.html'
p1866
sg32
S'django_test/settings'
p1867
sg34
g13
(g14
g15
NtRp1868
(dp1869
g18
I1
sg19
I0
sg20
I25
sg21
I0
sg22
I0
sg23
I0
sg24
I0
sbssg25
S'\xbc\x9e\xfc\x96\x91\x13\x94\xa3\xb8R\xe1x\xf5m\xe9h'
p1870
ssS'_home_mike_Documents_python_django-mike_lib_python2_7_site-packages_Django-1_4_3-py2_7_egg_django_contrib_messages_storage_session'
p1871
(dp1872
g56
(dp1873
g8
S'_home_mike_Documents_python_django-mike_lib_python2_7_site-packages_Django-1_4_3-py2_7_egg_django_contrib_messages_storage_session.html'
p1874
sg10
S'/home/mike/Documents/python/django-mike/lib/python2.7/site-packages/Django-1.4.3-py2.7.egg/django/contrib/messages/storage/session'
p1875
sg12
g13
(g14
g15
NtRp1876
(dp1877
g18
I1
sg19
I0
sg20
I13
sg21
I0
sg22
I0
sg23
I5
sg24
I0
sbssg62
S'\xbdy\xe8[\xc0\xe2\x199\x99\x06%\x8f\xff[t5'
p1878
ssS'_home_mike_Documents_python_django-mike_lib_python2_7_site-packages_Django-1_4_3-py2_7_egg_django_conf_locale_en___init__'
p1879
(dp1880
g6
(dp1881
g30
S'_home_mike_Documents_python_django-mike_lib_python2_7_site-packages_Django-1_4_3-py2_7_egg_django_conf_locale_en___init__.html'
p1882
sg32
S'/home/mike/Documents/python/django-mike/lib/python2.7/site-packages/Django-1.4.3-py2.7.egg/django/conf/locale/en/__init__'
p1883
sg34
g13
(g14
g15
NtRp1884
(dp1885
g18
I1
sg19
I0
sg20
I0
sg21
I0
sg22
I0
sg23
I0
sg24
I0
sbssg25
S'\xb0\xc8pN\xaf>\xa0\xbaz\x144\xe0A9\xb8?'
p1886
ssS'_home_mike_Documents_python_django-mike_lib_python2_7_site-packages_Django-1_4_3-py2_7_egg_django_contrib_auth_tokens'
p1887
(dp1888
g6
(dp1889
g30
S'_home_mike_Documents_python_django-mike_lib_python2_7_site-packages_Django-1_4_3-py2_7_egg_django_contrib_auth_tokens.html'
p1890
sg32
S'/home/mike/Documents/python/django-mike/lib/python2.7/site-packages/Django-1.4.3-py2.7.egg/django/contrib/auth/tokens'
p1891
sg34
g13
(g14
g15
NtRp1892
(dp1893
g18
I1
sg19
I0
sg20
I33
sg21
I0
sg22
I0
sg23
I22
sg24
I0
sbssg25
S'\xd5\x0c3\xaaa\x07\xe1\x06.\xfe\xeaP\xc3b\xdb\x96'
p1894
ssS'_home_mike_Documents_python_django-mike_lib_python2_7_site-packages_Django-1_4_3-py2_7_egg_django_db_models_query_utils'
p1895
(dp1896
g6
(dp1897
g30
S'_home_mike_Documents_python_django-mike_lib_python2_7_site-packages_Django-1_4_3-py2_7_egg_django_db_models_query_utils.html'
p1898
sg32
S'/home/mike/Documents/python/django-mike/lib/python2.7/site-packages/Django-1.4.3-py2.7.egg/django/db/models/query_utils'
p1899
sg34
g13
(g14
g15
NtRp1900
(dp1901
g18
I1
sg19
I0
sg20
I78
sg21
I0
sg22
I0
sg23
I53
sg24
I0
sbssg25
S'\x81r,\xe6%{i\xa9EW\xc8\x03\x0b\xe9\x80\xdd'
p1902
ssS'_home_mike_Documents_python_django-mike_lib_python2_7_site-packages_tastypie_utils___init__'
p1903
(dp1904
g56
(dp1905
g8
S'_home_mike_Documents_python_django-mike_lib_python2_7_site-packages_tastypie_utils___init__.html'
p1906
sg10
S'/home/mike/Documents/python/django-mike/lib/python2.7/site-packages/tastypie/utils/__init__'
p1907
sg12
g13
(g14
g15
NtRp1908
(dp1909
g18
I1
sg19
I0
sg20
I5
sg21
I0
sg22
I0
sg23
I0
sg24
I0
sbssg62
S'+\xee\x0eo\x8d\xc3\xbd[\x1awu\x9b\x05\x99\xebB'
p1910
ssS'_home_mike_Documents_python_django-mike_lib_python2_7_site-packages_Django-1_4_3-py2_7_egg_django_utils_tzinfo'
p1911
(dp1912
g6
(dp1913
g30
S'_home_mike_Documents_python_django-mike_lib_python2_7_site-packages_Django-1_4_3-py2_7_egg_django_utils_tzinfo.html'
p1914
sg32
S'/home/mike/Documents/python/django-mike/lib/python2.7/site-packages/Django-1.4.3-py2.7.egg/django/utils/tzinfo'
p1915
sg34
g13
(g14
g15
NtRp1916
(dp1917
g18
I1
sg19
I0
sg20
I52
sg21
I0
sg22
I0
sg23
I34
sg24
I0
sbssg25
S'J\x85\xf4\xb5CA45\x13xif\xcd\x822M'
p1918
ssS'_home_mike_Documents_python_django-mike_lib_python2_7_site-packages_Django-1_4_3-py2_7_egg_django_contrib_messages_storage_cookie'
p1919
(dp1920
g56
(dp1921
g8
S'_home_mike_Documents_python_django-mike_lib_python2_7_site-packages_Django-1_4_3-py2_7_egg_django_contrib_messages_storage_cookie.html'
p1922
sg10
S'/home/mike/Documents/python/django-mike/lib/python2.7/site-packages/Django-1.4.3-py2.7.egg/django/contrib/messages/storage/cookie'
p1923
sg12
g13
(g14
g15
NtRp1924
(dp1925
g18
I1
sg19
I0
sg20
I76
sg21
I0
sg22
I0
sg23
I55
sg24
I0
sbssg62
S'\x02\x95\x90\xd0>Q\xc7DN\xa8t&\x8c`=\x96'
p1926
ssS'_home_mike_Documents_python_django-mike_lib_python2_7_site-packages_tastypie_throttle'
p1927
(dp1928
g56
(dp1929
g8
S'_home_mike_Documents_python_django-mike_lib_python2_7_site-packages_tastypie_throttle.html'
p1930
sg10
S'/home/mike/Documents/python/django-mike/lib/python2.7/site-packages/tastypie/throttle'
p1931
sg12
g13
(g14
g15
NtRp1932
(dp1933
g18
I1
sg19
I0
sg20
I40
sg21
I0
sg22
I0
sg23
I23
sg24
I0
sbssg62
S'A\xdb"\x1b=\x8al\x14\x93\xdesz;\xdfcD'
p1934
ssS'_home_mike_Documents_python_django-mike_lib_python2_7_site-packages_Django-1_4_3-py2_7_egg_django_db_models_fields_subclassing'
p1935
(dp1936
g6
(dp1937
g30
S'_home_mike_Documents_python_django-mike_lib_python2_7_site-packages_Django-1_4_3-py2_7_egg_django_db_models_fields_subclassing.html'
p1938
sg32
S'/home/mike/Documents/python/django-mike/lib/python2.7/site-packages/Django-1.4.3-py2.7.egg/django/db/models/fields/subclassing'
p1939
sg34
g13
(g14
g15
NtRp1940
(dp1941
g18
I1
sg19
I0
sg20
I21
sg21
I0
sg22
I0
sg23
I14
sg24
I0
sbssg25
S'\x94\xfa\xe1\x9f\xf6\xcb\xa6\xb1N\xc5v\xa4\xcb\x9e\xd0n'
p1942
ssS'_home_mike_Documents_python_django-mike_lib_python2_7_site-packages_Django-1_4_3-py2_7_egg_django_utils_http'
p1943
(dp1944
g6
(dp1945
g8
S'_home_mike_Documents_python_django-mike_lib_python2_7_site-packages_Django-1_4_3-py2_7_egg_django_utils_http.html'
p1946
sg10
S'/home/mike/Documents/python/django-mike/lib/python2.7/site-packages/Django-1.4.3-py2.7.egg/django/utils/http'
p1947
sg12
g13
(g14
g15
NtRp1948
(dp1949
g18
I1
sg19
I0
sg20
I115
sg21
I0
sg22
I0
sg23
I68
sg24
I0
sbssg25
S'\x10\x1d\xd3U\r\xd8\r\x83\xb4\x01\xa7\xc5\xd9\x0f\x86V'
p1950
ssS'_home_mike_Documents_python_django-mike_lib_python2_7_site-packages_Django-1_4_3-py2_7_egg_django_core_servers_basehttp'
p1951
(dp1952
g6
(dp1953
g30
S'_home_mike_Documents_python_django-mike_lib_python2_7_site-packages_Django-1_4_3-py2_7_egg_django_core_servers_basehttp.html'
p1954
sg32
S'/home/mike/Documents/python/django-mike/lib/python2.7/site-packages/Django-1.4.3-py2.7.egg/django/core/servers/basehttp'
p1955
sg34
g13
(g14
g15
NtRp1956
(dp1957
g18
I1
sg19
I0
sg20
I142
sg21
I0
sg22
I0
sg23
I103
sg24
I0
sbssg25
S'\xdc\x86;\x06\x84B\xf8\xf4\xb2-F\xf8\x7f\x05\xcb\xf0'
p1958
ssS'_home_mike_Documents_python_django-mike_lib_python2_7_site-packages_Django-1_4_3-py2_7_egg_django_contrib_staticfiles___init__'
p1959
(dp1960
g6
(dp1961
g30
S'_home_mike_Documents_python_django-mike_lib_python2_7_site-packages_Django-1_4_3-py2_7_egg_django_contrib_staticfiles___init__.html'
p1962
sg32
S'/home/mike/Documents/python/django-mike/lib/python2.7/site-packages/Django-1.4.3-py2.7.egg/django/contrib/staticfiles/__init__'
p1963
sg34
g13
(g14
g15
NtRp1964
(dp1965
g18
I1
sg19
I0
sg20
I0
sg21
I0
sg22
I0
sg23
I0
sg24
I0
sbssg25
S'\xb0\xc8pN\xaf>\xa0\xbaz\x144\xe0A9\xb8?'
p1966
ssS'_home_mike_Documents_python_django-mike_lib_python2_7_site-packages_Django-1_4_3-py2_7_egg_django_db_models_expressions'
p1967
(dp1968
g6
(dp1969
g30
S'_home_mike_Documents_python_django-mike_lib_python2_7_site-packages_Django-1_4_3-py2_7_egg_django_db_models_expressions.html'
p1970
sg32
S'/home/mike/Documents/python/django-mike/lib/python2.7/site-packages/Django-1.4.3-py2.7.egg/django/db/models/expressions'
p1971
sg34
g13
(g14
g15
NtRp1972
(dp1973
g18
I1
sg19
I0
sg20
I80
sg21
I0
sg22
I0
sg23
I43
sg24
I0
sbssg25
S'mo\x1e\x15\xa0\xc1\x8a\x13\xf7\xaen\x81\xfc_\x0e\xa5'
p1974
ssS'_home_mike_Documents_python_django-mike_lib_python2_7_site-packages_Django-1_4_3-py2_7_egg_django_templatetags_static'
p1975
(dp1976
g56
(dp1977
g8
S'_home_mike_Documents_python_django-mike_lib_python2_7_site-packages_Django-1_4_3-py2_7_egg_django_templatetags_static.html'
p1978
sg10
S'/home/mike/Documents/python/django-mike/lib/python2.7/site-packages/Django-1.4.3-py2.7.egg/django/templatetags/static'
p1979
sg12
g13
(g14
g15
NtRp1980
(dp1981
g18
I1
sg19
I0
sg20
I39
sg21
I0
sg22
I0
sg23
I21
sg24
I0
sbssg62
S'\xa6\x8f5\x80\x82CU\x03E\x03\xf0\xd9t\xef\x97\xa8'
p1982
ssS'_home_mike_Documents_python_django-mike_lib_python2_7_site-packages_Django-1_4_3-py2_7_egg_django_contrib_auth_models'
p1983
(dp1984
g6
(dp1985
g30
S'_home_mike_Documents_python_django-mike_lib_python2_7_site-packages_Django-1_4_3-py2_7_egg_django_contrib_auth_models.html'
p1986
sg32
S'/home/mike/Documents/python/django-mike/lib/python2.7/site-packages/Django-1.4.3-py2.7.egg/django/contrib/auth/models'
p1987
sg34
g13
(g14
g15
NtRp1988
(dp1989
g18
I1
sg19
I0
sg20
I244
sg21
I0
sg22
I0
sg23
I129
sg24
I0
sbssg25
S'\xb9/yoz\'SU\xdf\xe0\xb0\xa6\xcdD"\xc6'
p1990
ssS'_home_mike_Documents_python_django-mike_lib_python2_7_site-packages_Django-1_4_3-py2_7_egg_django_core_serializers___init__'
p1991
(dp1992
g6
(dp1993
g30
S'_home_mike_Documents_python_django-mike_lib_python2_7_site-packages_Django-1_4_3-py2_7_egg_django_core_serializers___init__.html'
p1994
sg32
S'/home/mike/Documents/python/django-mike/lib/python2.7/site-packages/Django-1.4.3-py2.7.egg/django/core/serializers/__init__'
p1995
sg34
g13
(g14
g15
NtRp1996
(dp1997
g18
I1
sg19
I0
sg20
I58
sg21
I0
sg22
I0
sg23
I28
sg24
I0
sbssg25
S'\xbc\xa5Y\x81V\x8d<`\xdd\x83\xbb\x1b\xff\xb8G\xe7'
p1998
ssS'_home_mike_Documents_python_django-mike_lib_python2_7_site-packages_Django-1_4_3-py2_7_egg_django_core_mail_message'
p1999
(dp2000
g6
(dp2001
g30
S'_home_mike_Documents_python_django-mike_lib_python2_7_site-packages_Django-1_4_3-py2_7_egg_django_core_mail_message.html'
p2002
sg32
S'/home/mike/Documents/python/django-mike/lib/python2.7/site-packages/Django-1.4.3-py2.7.egg/django/core/mail/message'
p2003
sg34
g13
(g14
g15
NtRp2004
(dp2005
g18
I1
sg19
I0
sg20
I210
sg21
I0
sg22
I0
sg23
I157
sg24
I0
sbssg25
S'\x05\xd4\xb5\xcf/\xd7O 6\xd2\x14\xcfYa\x0eS'
p2006
ssS'_home_mike_Documents_python_django-mike_lib_python2_7_site-packages_Django-1_4_3-py2_7_egg_django_test___init__'
p2007
(dp2008
g6
(dp2009
g30
S'_home_mike_Documents_python_django-mike_lib_python2_7_site-packages_Django-1_4_3-py2_7_egg_django_test___init__.html'
p2010
sg32
S'/home/mike/Documents/python/django-mike/lib/python2.7/site-packages/Django-1.4.3-py2.7.egg/django/test/__init__'
p2011
sg34
g13
(g14
g15
NtRp2012
(dp2013
g18
I1
sg19
I0
sg20
I3
sg21
I0
sg22
I0
sg23
I0
sg24
I0
sbssg25
S'~\xbeB^\xffy\x92\x8f\x9e\xd7\xdc\xd8\xa1\xe5\xe0\x03'
p2014
ssS'_home_mike_Documents_python_django-mike_lib_python2_7_site-packages_Django-1_4_3-py2_7_egg_django_utils_decorators'
p2015
(dp2016
g6
(dp2017
g30
S'_home_mike_Documents_python_django-mike_lib_python2_7_site-packages_Django-1_4_3-py2_7_egg_django_utils_decorators.html'
p2018
sg32
S'/home/mike/Documents/python/django-mike/lib/python2.7/site-packages/Django-1.4.3-py2.7.egg/django/utils/decorators'
p2019
sg34
g13
(g14
g15
NtRp2020
(dp2021
g18
I1
sg19
I0
sg20
I59
sg21
I0
sg22
I0
sg23
I33
sg24
I0
sbssg25
S'\xd4C\xaf\x8d\xf9z (\xa8J9\xf4\x84\x8eHg'
p2022
ssS'_home_mike_Documents_python_django-mike_lib_python2_7_site-packages_dateutil_tz'
p2023
(dp2024
g56
(dp2025
g8
S'_home_mike_Documents_python_django-mike_lib_python2_7_site-packages_dateutil_tz.html'
p2026
sg10
S'/home/mike/Documents/python/django-mike/lib/python2.7/site-packages/dateutil/tz'
p2027
sg12
g13
(g14
g15
NtRp2028
(dp2029
g18
I1
sg19
I0
sg20
I581
sg21
I0
sg22
I0
sg23
I479
sg24
I0
sbssg62
S'\xd8\xc4\xd4\x0f\xc7h\xf0|\x08\xceK\xb1Y/\x1e\xc7'
p2030
ssS'_home_mike_Documents_python_django-mike_lib_python2_7_site-packages_Django-1_4_3-py2_7_egg_django_core_handlers_wsgi'
p2031
(dp2032
g6
(dp2033
g8
S'_home_mike_Documents_python_django-mike_lib_python2_7_site-packages_Django-1_4_3-py2_7_egg_django_core_handlers_wsgi.html'
p2034
sg10
S'/home/mike/Documents/python/django-mike/lib/python2.7/site-packages/Django-1.4.3-py2.7.egg/django/core/handlers/wsgi'
p2035
sg12
g13
(g14
g15
NtRp2036
(dp2037
g18
I1
sg19
I0
sg20
I142
sg21
I0
sg22
I0
sg23
I78
sg24
I0
sbssg25
S'af4cw\x14W\xfb\xc8\x9c6!J9\x05\xd9'
p2038
ssS'_home_mike_Documents_python_django-mike_lib_python2_7_site-packages_Django-1_4_3-py2_7_egg_django_middleware_csrf'
p2039
(dp2040
g6
(dp2041
g8
S'_home_mike_Documents_python_django-mike_lib_python2_7_site-packages_Django-1_4_3-py2_7_egg_django_middleware_csrf.html'
p2042
sg10
S'/home/mike/Documents/python/django-mike/lib/python2.7/site-packages/Django-1.4.3-py2.7.egg/django/middleware/csrf'
p2043
sg12
g13
(g14
g15
NtRp2044
(dp2045
g18
I1
sg19
I0
sg20
I82
sg21
I0
sg22
I0
sg23
I36
sg24
I0
sbssg25
S'\xd6\x89W\xb1Z\xc9\x06K\xd9\xb4$Xo\xfcf\xf1'
p2046
ssS'_home_mike_Documents_python_django-mike_lib_python2_7_site-packages_Django-1_4_3-py2_7_egg_django_conf_urls___init__'
p2047
(dp2048
g56
(dp2049
g8
S'_home_mike_Documents_python_django-mike_lib_python2_7_site-packages_Django-1_4_3-py2_7_egg_django_conf_urls___init__.html'
p2050
sg10
S'/home/mike/Documents/python/django-mike/lib/python2.7/site-packages/Django-1.4.3-py2.7.egg/django/conf/urls/__init__'
p2051
sg12
g13
(g14
g15
NtRp2052
(dp2053
g18
I1
sg19
I0
sg20
I40
sg21
I0
sg22
I0
sg23
I4
sg24
I0
sbssg62
S'\xf9\x806\x88(\xfe\\\x1d!\x01\x81\xebf\x1c\x8a$'
p2054
ssS'_home_mike_Documents_python_django-mike_lib_python2_7_site-packages_Django-1_4_3-py2_7_egg_django_core_files_uploadhandler'
p2055
(dp2056
g6
(dp2057
g30
S'_home_mike_Documents_python_django-mike_lib_python2_7_site-packages_Django-1_4_3-py2_7_egg_django_core_files_uploadhandler.html'
p2058
sg32
S'/home/mike/Documents/python/django-mike/lib/python2.7/site-packages/Django-1.4.3-py2.7.egg/django/core/files/uploadhandler'
p2059
sg34
g13
(g14
g15
NtRp2060
(dp2061
g18
I1
sg19
I0
sg20
I89
sg21
I0
sg22
I0
sg23
I54
sg24
I0
sbssg25
S'\xd7\x85G\xd1\xdc3<\xf5\xe9\xd6UF?\xc2\x90\xde'
p2062
ssS'_home_mike_Documents_python_django-mike_lib_python2_7_site-packages_Django-1_4_3-py2_7_egg_django_test_testcases'
p2063
(dp2064
g6
(dp2065
g30
S'_home_mike_Documents_python_django-mike_lib_python2_7_site-packages_Django-1_4_3-py2_7_egg_django_test_testcases.html'
p2066
sg32
S'/home/mike/Documents/python/django-mike/lib/python2.7/site-packages/Django-1.4.3-py2.7.egg/django/test/testcases'
p2067
sg34
g13
(g14
g15
NtRp2068
(dp2069
g18
I1
sg19
I0
sg20
I583
sg21
I0
sg22
I0
sg23
I408
sg24
I0
sbssg25
S'\xb22\x83\xefL(\x04{\x1f\xa8oO\x8fE\xf5%'
p2070
ssS'_home_mike_Documents_python_django-mike_lib_python2_7_site-packages_Django-1_4_3-py2_7_egg_django_utils_xmlutils'
p2071
(dp2072
g6
(dp2073
g30
S'_home_mike_Documents_python_django-mike_lib_python2_7_site-packages_Django-1_4_3-py2_7_egg_django_utils_xmlutils.html'
p2074
sg32
S'/home/mike/Documents/python/django-mike/lib/python2.7/site-packages/Django-1.4.3-py2.7.egg/django/utils/xmlutils'
p2075
sg34
g13
(g14
g15
NtRp2076
(dp2077
g18
I1
sg19
I0
sg20
I8
sg21
I0
sg22
I0
sg23
I5
sg24
I0
sbssg25
S'\xf1J\xb5(\x1cm\xf1\x8bQ\xab\x89\xc1\xce\x91R\x8f'
p2078
ssS'_home_mike_Documents_python_django-mike_lib_python2_7_site-packages_Django-1_4_3-py2_7_egg_django_core_management_validation'
p2079
(dp2080
g6
(dp2081
g30
S'_home_mike_Documents_python_django-mike_lib_python2_7_site-packages_Django-1_4_3-py2_7_egg_django_core_management_validation.html'
p2082
sg32
S'/home/mike/Documents/python/django-mike/lib/python2.7/site-packages/Django-1.4.3-py2.7.egg/django/core/management/validation'
p2083
sg34
g13
(g14
g15
NtRp2084
(dp2085
g18
I1
sg19
I0
sg20
I213
sg21
I0
sg22
I0
sg23
I102
sg24
I0
sbssg25
S'jgI&\x003\xd19ZmWEx\xdc:~'
p2086
ssS'_home_mike_Documents_python_django-mike_lib_python2_7_site-packages_Django-1_4_3-py2_7_egg_django_template___init__'
p2087
(dp2088
g6
(dp2089
g30
S'_home_mike_Documents_python_django-mike_lib_python2_7_site-packages_Django-1_4_3-py2_7_egg_django_template___init__.html'
p2090
sg32
S'/home/mike/Documents/python/django-mike/lib/python2.7/site-packages/Django-1.4.3-py2.7.egg/django/template/__init__'
p2091
sg34
g13
(g14
g15
NtRp2092
(dp2093
g18
I1
sg19
I0
sg20
I6
sg21
I0
sg22
I0
sg23
I0
sg24
I0
sbssg25
S'\xb6\xa0l\x13\xa8q\x87\r\xa8\xea\xdd\x99\xef\xf5k\xd3'
p2094
ssS'_home_mike_Documents_python_django-mike_lib_python2_7_site-packages_Django-1_4_3-py2_7_egg_django_core_wsgi'
p2095
(dp2096
g6
(dp2097
g30
S'_home_mike_Documents_python_django-mike_lib_python2_7_site-packages_Django-1_4_3-py2_7_egg_django_core_wsgi.html'
p2098
sg32
S'/home/mike/Documents/python/django-mike/lib/python2.7/site-packages/Django-1.4.3-py2.7.egg/django/core/wsgi'
p2099
sg34
g13
(g14
g15
NtRp2100
(dp2101
g18
I1
sg19
I0
sg20
I3
sg21
I0
sg22
I0
sg23
I1
sg24
I0
sbssg25
S' \x0e\x1b\xd1D\xd0\x13<c\x84?v\xdf\xd1\xf8\x84'
p2102
ssS'_home_mike_Documents_python_django-mike_lib_python2_7_site-packages_tastypie_constants'
p2103
(dp2104
g56
(dp2105
g8
S'_home_mike_Documents_python_django-mike_lib_python2_7_site-packages_tastypie_constants.html'
p2106
sg10
S'/home/mike/Documents/python/django-mike/lib/python2.7/site-packages/tastypie/constants'
p2107
sg12
g13
(g14
g15
NtRp2108
(dp2109
g18
I1
sg19
I0
sg20
I2
sg21
I0
sg22
I0
sg23
I0
sg24
I0
sbssg62
S'\xf2_\x9f\x1b\xaf]\x16\x04\xec\x92\xec\xd1\x17\x7f\xbf#'
p2110
ssS'_home_mike_Documents_python_django-mike_lib_python2_7_site-packages_lxml__elementpath'
p2111
(dp2112
g56
(dp2113
g8
S'_home_mike_Documents_python_django-mike_lib_python2_7_site-packages_lxml__elementpath.html'
p2114
sg10
S'/home/mike/Documents/python/django-mike/lib/python2.7/site-packages/lxml/_elementpath'
p2115
sg12
g13
(g14
g15
NtRp2116
(dp2117
g18
I1
sg19
I0
sg20
I182
sg21
I0
sg22
I0
sg23
I166
sg24
I0
sbssg62
S'\xf6\xb6\xb0C9\x84n\xe4(\xc0\x84\xd31\x90\xcc$'
p2118
ssS'_home_mike_Documents_python_django-mike_lib_python2_7_site-packages_Django-1_4_3-py2_7_egg_django_core_handlers_base'
p2119
(dp2120
g6
(dp2121
g8
S'_home_mike_Documents_python_django-mike_lib_python2_7_site-packages_Django-1_4_3-py2_7_egg_django_core_handlers_base.html'
p2122
sg10
S'/home/mike/Documents/python/django-mike/lib/python2.7/site-packages/Django-1.4.3-py2.7.egg/django/core/handlers/base'
p2123
sg12
g13
(g14
g15
NtRp2124
(dp2125
g18
I1
sg19
I0
sg20
I151
sg21
I0
sg22
I0
sg23
I72
sg24
I0
sbssg25
S'\xcc9\x9b\x00)\xd1\xfb\x02\xf6\xb4\x88\xcfL\xcf\xc9\xdb'
p2126
ssS'_home_mike_Documents_python_django-mike_lib_python2_7_site-packages_Django-1_4_3-py2_7_egg_django_test__doctest'
p2127
(dp2128
g6
(dp2129
g30
S'_home_mike_Documents_python_django-mike_lib_python2_7_site-packages_Django-1_4_3-py2_7_egg_django_test__doctest.html'
p2130
sg32
S'/home/mike/Documents/python/django-mike/lib/python2.7/site-packages/Django-1.4.3-py2.7.egg/django/test/_doctest'
p2131
sg34
g13
(g14
g15
NtRp2132
(dp2133
g18
I1
sg19
I0
sg20
I896
sg21
I0
sg22
I0
sg23
I633
sg24
I0
sbssg25
S' \x06[\xab.\x8f\xa3\xc2\x88)t\xea\x9f\xb5-\x97'
p2134
ssS'_home_mike_Documents_python_django-mike_lib_python2_7_site-packages_Django-1_4_3-py2_7_egg_django_utils_log'
p2135
(dp2136
g6
(dp2137
g30
S'_home_mike_Documents_python_django-mike_lib_python2_7_site-packages_Django-1_4_3-py2_7_egg_django_utils_log.html'
p2138
sg32
S'/home/mike/Documents/python/django-mike/lib/python2.7/site-packages/Django-1.4.3-py2.7.egg/django/utils/log'
p2139
sg34
g13
(g14
g15
NtRp2140
(dp2141
g18
I1
sg19
I0
sg20
I56
sg21
I0
sg22
I0
sg23
I32
sg24
I0
sbssg25
S'[\xb7U\xe3<\xd4\x88\x90wQ^\x06y%\xb8K'
p2142
ssS'_home_mike_Documents_python_django-mike_lib_python2_7_site-packages_Django-1_4_3-py2_7_egg_django_utils_importlib'
p2143
(dp2144
g6
(dp2145
g30
S'_home_mike_Documents_python_django-mike_lib_python2_7_site-packages_Django-1_4_3-py2_7_egg_django_utils_importlib.html'
p2146
sg32
S'/home/mike/Documents/python/django-mike/lib/python2.7/site-packages/Django-1.4.3-py2.7.egg/django/utils/importlib'
p2147
sg34
g13
(g14
g15
NtRp2148
(dp2149
g18
I1
sg19
I0
sg20
I23
sg21
I0
sg22
I0
sg23
I6
sg24
I0
sbssg25
S'\xba\x10A\xccg\xac\xd0\xe2\xb9QBQ3\x8d\xc0\x01'
p2150
ssS'_home_mike_Documents_python_django-mike_lib_python2_7_site-packages_Django-1_4_3-py2_7_egg_django_core_mail_utils'
p2151
(dp2152
g6
(dp2153
g30
S'_home_mike_Documents_python_django-mike_lib_python2_7_site-packages_Django-1_4_3-py2_7_egg_django_core_mail_utils.html'
p2154
sg32
S'/home/mike/Documents/python/django-mike/lib/python2.7/site-packages/Django-1.4.3-py2.7.egg/django/core/mail/utils'
p2155
sg34
g13
(g14
g15
NtRp2156
(dp2157
g18
I1
sg19
I0
sg20
I9
sg21
I0
sg22
I0
sg23
I4
sg24
I0
sbssg25
S'q\x8f\x86\xa8\x10\xa1\x04\x98^\x0e\xe8\x93\xb7X\xaan'
p2158
ssS'_home_mike_Documents_python_django-mike_lib_python2_7_site-packages_tastypie_utils_timezone'
p2159
(dp2160
g56
(dp2161
g8
S'_home_mike_Documents_python_django-mike_lib_python2_7_site-packages_tastypie_utils_timezone.html'
p2162
sg10
S'/home/mike/Documents/python/django-mike/lib/python2.7/site-packages/tastypie/utils/timezone'
p2163
sg12
g13
(g14
g15
NtRp2164
(dp2165
g18
I1
sg19
I0
sg20
I23
sg21
I0
sg22
I0
sg23
I14
sg24
I0
sbssg62
S'u\xe9$\x95\xa4N\xf5{\x0f\x97\xcc\xa9\xf6bM\xd8'
p2166
ssS'_home_mike_Documents_python_django-mike_lib_python2_7_site-packages_Django-1_4_3-py2_7_egg_django_middleware___init__'
p2167
(dp2168
g6
(dp2169
g30
S'_home_mike_Documents_python_django-mike_lib_python2_7_site-packages_Django-1_4_3-py2_7_egg_django_middleware___init__.html'
p2170
sg32
S'/home/mike/Documents/python/django-mike/lib/python2.7/site-packages/Django-1.4.3-py2.7.egg/django/middleware/__init__'
p2171
sg34
g13
(g14
g15
NtRp2172
(dp2173
g18
I1
sg19
I0
sg20
I0
sg21
I0
sg22
I0
sg23
I0
sg24
I0
sbssg25
S'\xb0\xc8pN\xaf>\xa0\xbaz\x144\xe0A9\xb8?'
p2174
ssS'_home_mike_Documents_python_django-mike_lib_python2_7_site-packages_Django-1_4_3-py2_7_egg_django_template_defaulttags'
p2175
(dp2176
g6
(dp2177
g8
S'_home_mike_Documents_python_django-mike_lib_python2_7_site-packages_Django-1_4_3-py2_7_egg_django_template_defaulttags.html'
p2178
sg10
S'/home/mike/Documents/python/django-mike/lib/python2.7/site-packages/Django-1.4.3-py2.7.egg/django/template/defaulttags'
p2179
sg12
g13
(g14
g15
NtRp2180
(dp2181
g18
I1
sg19
I0
sg20
I613
sg21
I0
sg22
I0
sg23
I411
sg24
I0
sbssg25
S'\x84\xc2\xba\x95\xe4\xc4du4\xbai\xe5\xe8\xd2l\x89'
p2182
ssS'_home_mike_Documents_python_django-mike_lib_python2_7_site-packages_tastypie_exceptions'
p2183
(dp2184
g56
(dp2185
g8
S'_home_mike_Documents_python_django-mike_lib_python2_7_site-packages_tastypie_exceptions.html'
p2186
sg10
S'/home/mike/Documents/python/django-mike/lib/python2.7/site-packages/tastypie/exceptions'
p2187
sg12
g13
(g14
g15
NtRp2188
(dp2189
g18
I1
sg19
I0
sg20
I29
sg21
I0
sg22
I0
sg23
I2
sg24
I0
sbssg62
S'\x0e-\x93\x91*\xa1\x8f\x00\x14\xb1p\xe8\xc3\xc8\x97\x9d'
p2190
ssS'_home_mike_Documents_python_django-mike_lib_python2_7_site-packages_Django-1_4_3-py2_7_egg_django_contrib_admin_util'
p2191
(dp2192
g6
(dp2193
g30
S'_home_mike_Documents_python_django-mike_lib_python2_7_site-packages_Django-1_4_3-py2_7_egg_django_contrib_admin_util.html'
p2194
sg32
S'/home/mike/Documents/python/django-mike/lib/python2.7/site-packages/Django-1.4.3-py2.7.egg/django/contrib/admin/util'
p2195
sg34
g13
(g14
g15
NtRp2196
(dp2197
g18
I1
sg19
I0
sg20
I256
sg21
I0
sg22
I0
sg23
I217
sg24
I0
sbssg25
S'U\x0b\xcc\xa7dQ\x96k\x9bc\x9e\x19\xc7\x9f?b'
p2198
ssS'_home_mike_Documents_python_django-mike_lib_python2_7_site-packages_Django-1_4_3-py2_7_egg_django_contrib_sessions_backends_base'
p2199
(dp2200
g6
(dp2201
g8
S'_home_mike_Documents_python_django-mike_lib_python2_7_site-packages_Django-1_4_3-py2_7_egg_django_contrib_sessions_backends_base.html'
p2202
sg10
S'/home/mike/Documents/python/django-mike/lib/python2.7/site-packages/Django-1.4.3-py2.7.egg/django/contrib/sessions/backends/base'
p2203
sg12
g13
(g14
g15
NtRp2204
(dp2205
g18
I1
sg19
I0
sg20
I160
sg21
I0
sg22
I0
sg23
I92
sg24
I0
sbssg25
S'\xb2\xf2\x7f\xf5\x1aO\xc7\xf0\xce\x88n\xc2\xb3\x0e:w'
p2206
ssS'_home_mike_Documents_python_django-mike_lib_python2_7_site-packages_Django-1_4_3-py2_7_egg_django_utils_regex_helper'
p2207
(dp2208
g6
(dp2209
g8
S'_home_mike_Documents_python_django-mike_lib_python2_7_site-packages_Django-1_4_3-py2_7_egg_django_utils_regex_helper.html'
p2210
sg10
S'/home/mike/Documents/python/django-mike/lib/python2.7/site-packages/Django-1.4.3-py2.7.egg/django/utils/regex_helper'
p2211
sg12
g13
(g14
g15
NtRp2212
(dp2213
g18
I1
sg19
I0
sg20
I185
sg21
I0
sg22
I0
sg23
I90
sg24
I0
sbssg25
S'l@,\xc4\x12\xe4c\x05\x9ehY$\xb6P\xa8\xc9'
p2214
ssS'_home_mike_Documents_python_django-mike_lib_python2_7_site-packages_Django-1_4_3-py2_7_egg_django_core_handlers___init__'
p2215
(dp2216
g6
(dp2217
g30
S'_home_mike_Documents_python_django-mike_lib_python2_7_site-packages_Django-1_4_3-py2_7_egg_django_core_handlers___init__.html'
p2218
sg32
S'/home/mike/Documents/python/django-mike/lib/python2.7/site-packages/Django-1.4.3-py2.7.egg/django/core/handlers/__init__'
p2219
sg34
g13
(g14
g15
NtRp2220
(dp2221
g18
I1
sg19
I0
sg20
I0
sg21
I0
sg22
I0
sg23
I0
sg24
I0
sbssg25
S'\xb0\xc8pN\xaf>\xa0\xbaz\x144\xe0A9\xb8?'
p2222
ssS'article_forms'
p2223
(dp2224
g56
(dp2225
g8
S'article_forms.html'
p2226
sg10
S'article/forms'
p2227
sg12
g13
(g14
g15
NtRp2228
(dp2229
g18
I1
sg19
I0
sg20
I10
sg21
I0
sg22
I0
sg23
I0
sg24
I0
sbssg62
S'\xeb1\xc8\xf9\xe1~\xdc\xab\x19N\xfbM\x02\x1d\xe5\xd0'
p2230
ssS'_home_mike_Documents_python_django-mike_lib_python2_7_site-packages_Django-1_4_3-py2_7_egg_django_utils_synch'
p2231
(dp2232
g6
(dp2233
g30
S'_home_mike_Documents_python_django-mike_lib_python2_7_site-packages_Django-1_4_3-py2_7_egg_django_utils_synch.html'
p2234
sg32
S'/home/mike/Documents/python/django-mike/lib/python2.7/site-packages/Django-1.4.3-py2.7.egg/django/utils/synch'
p2235
sg34
g13
(g14
g15
NtRp2236
(dp2237
g18
I1
sg19
I0
sg20
I60
sg21
I0
sg22
I0
sg23
I41
sg24
I0
sbssg25
S'\xda\xed\xb8;\x18\xf0IL\xc7`[\xdd\xd9\xde\xb4e'
p2238
ssS'_home_mike_Documents_python_django-mike_lib_python2_7_site-packages_Django-1_4_3-py2_7_egg_django_contrib_sites_management'
p2239
(dp2240
g6
(dp2241
g30
S'_home_mike_Documents_python_django-mike_lib_python2_7_site-packages_Django-1_4_3-py2_7_egg_django_contrib_sites_management.html'
p2242
sg32
S'/home/mike/Documents/python/django-mike/lib/python2.7/site-packages/Django-1.4.3-py2.7.egg/django/contrib/sites/management'
p2243
sg34
g13
(g14
g15
NtRp2244
(dp2245
g18
I1
sg19
I0
sg20
I20
sg21
I0
sg22
I0
sg23
I6
sg24
I0
sbssg25
S'@\x88\xcb(!\x00\xeeo\x0e\x04\xc8\xcb\xc2\x8e\x1d\x9d'
p2246
ssS'_home_mike_Documents_python_django-mike_lib_python2_7_site-packages_Django-1_4_3-py2_7_egg_django_utils_translation___init__'
p2247
(dp2248
g6
(dp2249
g30
S'_home_mike_Documents_python_django-mike_lib_python2_7_site-packages_Django-1_4_3-py2_7_egg_django_utils_translation___init__.html'
p2250
sg32
S'/home/mike/Documents/python/django-mike/lib/python2.7/site-packages/Django-1.4.3-py2.7.egg/django/utils/translation/__init__'
p2251
sg34
g13
(g14
g15
NtRp2252
(dp2253
g18
I1
sg19
I0
sg20
I86
sg21
I0
sg22
I0
sg23
I26
sg24
I0
sbssg25
S'\xda\xd8\xce\xd4\xc15\xcb*\xa5\xefV\\\x97\x87L\x0b'
p2254
ssS'_home_mike_Documents_python_django-mike_lib_python2_7_site-packages_Django-1_4_3-py2_7_egg_django_db_backends_creation'
p2255
(dp2256
g6
(dp2257
g30
S'_home_mike_Documents_python_django-mike_lib_python2_7_site-packages_Django-1_4_3-py2_7_egg_django_db_backends_creation.html'
p2258
sg32
S'/home/mike/Documents/python/django-mike/lib/python2.7/site-packages/Django-1.4.3-py2.7.egg/django/db/backends/creation'
p2259
sg34
g13
(g14
g15
NtRp2260
(dp2261
g18
I1
sg19
I0
sg20
I212
sg21
I0
sg22
I0
sg23
I93
sg24
I0
sbssg25
S'\xc7&\x96%\x1c\xb6\x9d<\xb8|\xd2qw5\xe8\x05'
p2262
ssS'_home_mike_Documents_python_django-mike_lib_python2_7_site-packages_tastypie_utils_validate_jsonp'
p2263
(dp2264
g56
(dp2265
g8
S'_home_mike_Documents_python_django-mike_lib_python2_7_site-packages_tastypie_utils_validate_jsonp.html'
p2266
sg10
S'/home/mike/Documents/python/django-mike/lib/python2.7/site-packages/tastypie/utils/validate_jsonp'
p2267
sg12
g13
(g14
g15
NtRp2268
(dp2269
g18
I1
sg19
I0
sg20
I53
sg21
I0
sg22
I0
sg23
I39
sg24
I0
sbssg62
S'\x14\xa3\x89*\xc5\xaf\x1a\xa4\xb9\x13\xad~\xb6\xc6\xc8\xd1'
p2270
ssS'_home_mike_Documents_python_django-mike_lib_python2_7_site-packages_Django-1_4_3-py2_7_egg_django_template_loader'
p2271
(dp2272
g6
(dp2273
g8
S'_home_mike_Documents_python_django-mike_lib_python2_7_site-packages_Django-1_4_3-py2_7_egg_django_template_loader.html'
p2274
sg10
S'/home/mike/Documents/python/django-mike/lib/python2.7/site-packages/Django-1.4.3-py2.7.egg/django/template/loader'
p2275
sg12
g13
(g14
g15
NtRp2276
(dp2277
g18
I1
sg19
I0
sg20
I104
sg21
I0
sg22
I0
sg23
I35
sg24
I0
sbssg25
S'\xd7\xb8\x0eC*\xe4\x11\xa7i\xf5-\xda\x17$M\x0f'
p2278
ssS'_home_mike_Documents_python_django-mike_lib_python2_7_site-packages_Django-1_4_3-py2_7_egg_django_utils_translation_trans_real'
p2279
(dp2280
g6
(dp2281
g30
S'_home_mike_Documents_python_django-mike_lib_python2_7_site-packages_Django-1_4_3-py2_7_egg_django_utils_translation_trans_real.html'
p2282
sg32
S'/home/mike/Documents/python/django-mike/lib/python2.7/site-packages/Django-1.4.3-py2.7.egg/django/utils/translation/trans_real'
p2283
sg34
g13
(g14
g15
NtRp2284
(dp2285
g18
I1
sg19
I0
sg20
I365
sg21
I0
sg22
I0
sg23
I225
sg24
I0
sbssg25
S'\x80\x14\xbf\x95\xf3\x8b\xa8z\x04\xf8-"D\x07oN'
p2286
ssS'_home_mike_Documents_python_django-mike_lib_python2_7_site-packages_Django-1_4_3-py2_7_egg_django_contrib_messages_constants'
p2287
(dp2288
g6
(dp2289
g30
S'_home_mike_Documents_python_django-mike_lib_python2_7_site-packages_Django-1_4_3-py2_7_egg_django_contrib_messages_constants.html'
p2290
sg32
S'/home/mike/Documents/python/django-mike/lib/python2.7/site-packages/Django-1.4.3-py2.7.egg/django/contrib/messages/constants'
p2291
sg34
g13
(g14
g15
NtRp2292
(dp2293
g18
I1
sg19
I0
sg20
I6
sg21
I0
sg22
I0
sg23
I0
sg24
I0
sbssg25
S'\xe2n\xbf/\x11\x9a\xf2\xc6\xa4\x8f~\xd2\x91y\xd4\xda'
p2294
ssS'_home_mike_Documents_python_django-mike_lib_python2_7_site-packages_mimeparse'
p2295
(dp2296
g56
(dp2297
g8
S'_home_mike_Documents_python_django-mike_lib_python2_7_site-packages_mimeparse.html'
p2298
sg10
S'/home/mike/Documents/python/django-mike/lib/python2.7/site-packages/mimeparse'
p2299
sg12
g13
(g14
g15
NtRp2300
(dp2301
g18
I1
sg19
I0
sg20
I48
sg21
I0
sg22
I0
sg23
I37
sg24
I0
sbssg62
S'\xc4F\xfa\xe5\x1e\x18k\x1f&\xe2\xb1 \x1bIf\xd8'
p2302
ssS'_home_mike_Documents_python_django-mike_lib_python2_7_site-packages_Django-1_4_3-py2_7_egg_django_forms___init__'
p2303
(dp2304
g6
(dp2305
g30
S'_home_mike_Documents_python_django-mike_lib_python2_7_site-packages_Django-1_4_3-py2_7_egg_django_forms___init__.html'
p2306
sg32
S'/home/mike/Documents/python/django-mike/lib/python2.7/site-packages/Django-1.4.3-py2.7.egg/django/forms/__init__'
p2307
sg34
g13
(g14
g15
NtRp2308
(dp2309
g18
I1
sg19
I0
sg20
I6
sg21
I0
sg22
I0
sg23
I0
sg24
I0
sbssg25
S"\xfb\x98'\xfe<\x95\xf2Q\xfe,\xaeF\t[\xfeP"
p2310
ssS'_home_mike_Documents_python_django-mike_lib_python2_7_site-packages_Django-1_4_3-py2_7_egg_django_utils_safestring'
p2311
(dp2312
g6
(dp2313
g8
S'_home_mike_Documents_python_django-mike_lib_python2_7_site-packages_Django-1_4_3-py2_7_egg_django_utils_safestring.html'
p2314
sg10
S'/home/mike/Documents/python/django-mike/lib/python2.7/site-packages/Django-1.4.3-py2.7.egg/django/utils/safestring'
p2315
sg12
g13
(g14
g15
NtRp2316
(dp2317
g18
I1
sg19
I0
sg20
I57
sg21
I0
sg22
I0
sg23
I24
sg24
I0
sbssg25
S'\xffN\x83\x1b\x1d@\xa2\x85\x85b\x97S\x16\xc3\x88\x11'
p2318
sssS'version'
p2319
S'3.6'
p2320
sS'settings'
p2321
S'3\xcf\xa1\x19.\x88o$\x8cA\xde\xbd\xcd\x06\xa1\x0f'
p2322
sS'format'
p2323
I1
s.